ARM GAS  C:\Users\BHUPEN~1\AppData\Local\Temp\ccJ4iBJ9.s 			page 1


   1              		.cpu cortex-m0plus
   2              		.eabi_attribute 20, 1
   3              		.eabi_attribute 21, 1
   4              		.eabi_attribute 23, 3
   5              		.eabi_attribute 24, 1
   6              		.eabi_attribute 25, 1
   7              		.eabi_attribute 26, 1
   8              		.eabi_attribute 30, 1
   9              		.eabi_attribute 34, 0
  10              		.eabi_attribute 18, 4
  11              		.file	"stm32c0xx_hal_rcc_ex.c"
  12              		.text
  13              	.Ltext0:
  14              		.cfi_sections	.debug_frame
  15              		.section	.text.HAL_RCCEx_PeriphCLKConfig,"ax",%progbits
  16              		.align	1
  17              		.global	HAL_RCCEx_PeriphCLKConfig
  18              		.arch armv6s-m
  19              		.syntax unified
  20              		.code	16
  21              		.thumb_func
  22              		.fpu softvfp
  24              	HAL_RCCEx_PeriphCLKConfig:
  25              	.LVL0:
  26              	.LFB230:
  27              		.file 1 "Drivers/STM32C0xx_HAL_Driver/Src/stm32c0xx_hal_rcc_ex.c"
   1:Drivers/STM32C0xx_HAL_Driver/Src/stm32c0xx_hal_rcc_ex.c **** /**
   2:Drivers/STM32C0xx_HAL_Driver/Src/stm32c0xx_hal_rcc_ex.c ****   ******************************************************************************
   3:Drivers/STM32C0xx_HAL_Driver/Src/stm32c0xx_hal_rcc_ex.c ****   * @file    stm32c0xx_hal_rcc_ex.c
   4:Drivers/STM32C0xx_HAL_Driver/Src/stm32c0xx_hal_rcc_ex.c ****   * @author  MCD Application Team
   5:Drivers/STM32C0xx_HAL_Driver/Src/stm32c0xx_hal_rcc_ex.c ****   * @brief   Extended RCC HAL module driver.
   6:Drivers/STM32C0xx_HAL_Driver/Src/stm32c0xx_hal_rcc_ex.c ****   *          This file provides firmware functions to manage the following
   7:Drivers/STM32C0xx_HAL_Driver/Src/stm32c0xx_hal_rcc_ex.c ****   *          functionalities RCC extended peripheral:
   8:Drivers/STM32C0xx_HAL_Driver/Src/stm32c0xx_hal_rcc_ex.c ****   *           + Extended Peripheral Control functions
   9:Drivers/STM32C0xx_HAL_Driver/Src/stm32c0xx_hal_rcc_ex.c ****   *           + Extended Clock management functions
  10:Drivers/STM32C0xx_HAL_Driver/Src/stm32c0xx_hal_rcc_ex.c ****   *
  11:Drivers/STM32C0xx_HAL_Driver/Src/stm32c0xx_hal_rcc_ex.c ****   ******************************************************************************
  12:Drivers/STM32C0xx_HAL_Driver/Src/stm32c0xx_hal_rcc_ex.c ****   * @attention
  13:Drivers/STM32C0xx_HAL_Driver/Src/stm32c0xx_hal_rcc_ex.c ****   *
  14:Drivers/STM32C0xx_HAL_Driver/Src/stm32c0xx_hal_rcc_ex.c ****   * Copyright (c) 2022 STMicroelectronics.
  15:Drivers/STM32C0xx_HAL_Driver/Src/stm32c0xx_hal_rcc_ex.c ****   * All rights reserved.
  16:Drivers/STM32C0xx_HAL_Driver/Src/stm32c0xx_hal_rcc_ex.c ****   *
  17:Drivers/STM32C0xx_HAL_Driver/Src/stm32c0xx_hal_rcc_ex.c ****   * This software is licensed under terms that can be found in the LICENSE file
  18:Drivers/STM32C0xx_HAL_Driver/Src/stm32c0xx_hal_rcc_ex.c ****   * in the root directory of this software component.
  19:Drivers/STM32C0xx_HAL_Driver/Src/stm32c0xx_hal_rcc_ex.c ****   * If no LICENSE file comes with this software, it is provided AS-IS.
  20:Drivers/STM32C0xx_HAL_Driver/Src/stm32c0xx_hal_rcc_ex.c ****   *
  21:Drivers/STM32C0xx_HAL_Driver/Src/stm32c0xx_hal_rcc_ex.c ****   ******************************************************************************
  22:Drivers/STM32C0xx_HAL_Driver/Src/stm32c0xx_hal_rcc_ex.c ****   */
  23:Drivers/STM32C0xx_HAL_Driver/Src/stm32c0xx_hal_rcc_ex.c **** 
  24:Drivers/STM32C0xx_HAL_Driver/Src/stm32c0xx_hal_rcc_ex.c **** /* Includes ------------------------------------------------------------------*/
  25:Drivers/STM32C0xx_HAL_Driver/Src/stm32c0xx_hal_rcc_ex.c **** #include "stm32c0xx_hal.h"
  26:Drivers/STM32C0xx_HAL_Driver/Src/stm32c0xx_hal_rcc_ex.c **** 
  27:Drivers/STM32C0xx_HAL_Driver/Src/stm32c0xx_hal_rcc_ex.c **** /** @addtogroup STM32C0xx_HAL_Driver
  28:Drivers/STM32C0xx_HAL_Driver/Src/stm32c0xx_hal_rcc_ex.c ****   * @{
  29:Drivers/STM32C0xx_HAL_Driver/Src/stm32c0xx_hal_rcc_ex.c ****   */
  30:Drivers/STM32C0xx_HAL_Driver/Src/stm32c0xx_hal_rcc_ex.c **** 
  31:Drivers/STM32C0xx_HAL_Driver/Src/stm32c0xx_hal_rcc_ex.c **** /** @defgroup RCCEx RCCEx
ARM GAS  C:\Users\BHUPEN~1\AppData\Local\Temp\ccJ4iBJ9.s 			page 2


  32:Drivers/STM32C0xx_HAL_Driver/Src/stm32c0xx_hal_rcc_ex.c ****   * @brief RCC Extended HAL module driver
  33:Drivers/STM32C0xx_HAL_Driver/Src/stm32c0xx_hal_rcc_ex.c ****   * @{
  34:Drivers/STM32C0xx_HAL_Driver/Src/stm32c0xx_hal_rcc_ex.c ****   */
  35:Drivers/STM32C0xx_HAL_Driver/Src/stm32c0xx_hal_rcc_ex.c **** 
  36:Drivers/STM32C0xx_HAL_Driver/Src/stm32c0xx_hal_rcc_ex.c **** #ifdef HAL_RCC_MODULE_ENABLED
  37:Drivers/STM32C0xx_HAL_Driver/Src/stm32c0xx_hal_rcc_ex.c **** 
  38:Drivers/STM32C0xx_HAL_Driver/Src/stm32c0xx_hal_rcc_ex.c **** /* Private typedef -----------------------------------------------------------*/
  39:Drivers/STM32C0xx_HAL_Driver/Src/stm32c0xx_hal_rcc_ex.c **** /* Private defines -----------------------------------------------------------*/
  40:Drivers/STM32C0xx_HAL_Driver/Src/stm32c0xx_hal_rcc_ex.c **** /** @defgroup RCCEx_Private_Constants RCCEx Private Constants
  41:Drivers/STM32C0xx_HAL_Driver/Src/stm32c0xx_hal_rcc_ex.c ****   * @{
  42:Drivers/STM32C0xx_HAL_Driver/Src/stm32c0xx_hal_rcc_ex.c ****   */
  43:Drivers/STM32C0xx_HAL_Driver/Src/stm32c0xx_hal_rcc_ex.c **** #define LSCO_CLK_ENABLE()     __HAL_RCC_GPIOA_CLK_ENABLE()
  44:Drivers/STM32C0xx_HAL_Driver/Src/stm32c0xx_hal_rcc_ex.c **** #define LSCO_GPIO_PORT        GPIOA
  45:Drivers/STM32C0xx_HAL_Driver/Src/stm32c0xx_hal_rcc_ex.c **** #define LSCO_PIN              GPIO_PIN_2
  46:Drivers/STM32C0xx_HAL_Driver/Src/stm32c0xx_hal_rcc_ex.c **** /**
  47:Drivers/STM32C0xx_HAL_Driver/Src/stm32c0xx_hal_rcc_ex.c ****   * @}
  48:Drivers/STM32C0xx_HAL_Driver/Src/stm32c0xx_hal_rcc_ex.c ****   */
  49:Drivers/STM32C0xx_HAL_Driver/Src/stm32c0xx_hal_rcc_ex.c **** 
  50:Drivers/STM32C0xx_HAL_Driver/Src/stm32c0xx_hal_rcc_ex.c **** /* Private macros ------------------------------------------------------------*/
  51:Drivers/STM32C0xx_HAL_Driver/Src/stm32c0xx_hal_rcc_ex.c **** /* Private variables ---------------------------------------------------------*/
  52:Drivers/STM32C0xx_HAL_Driver/Src/stm32c0xx_hal_rcc_ex.c **** /* Private function prototypes -----------------------------------------------*/
  53:Drivers/STM32C0xx_HAL_Driver/Src/stm32c0xx_hal_rcc_ex.c **** /* Exported functions --------------------------------------------------------*/
  54:Drivers/STM32C0xx_HAL_Driver/Src/stm32c0xx_hal_rcc_ex.c **** 
  55:Drivers/STM32C0xx_HAL_Driver/Src/stm32c0xx_hal_rcc_ex.c **** /** @defgroup RCCEx_Exported_Functions RCCEx Exported Functions
  56:Drivers/STM32C0xx_HAL_Driver/Src/stm32c0xx_hal_rcc_ex.c ****   * @{
  57:Drivers/STM32C0xx_HAL_Driver/Src/stm32c0xx_hal_rcc_ex.c ****   */
  58:Drivers/STM32C0xx_HAL_Driver/Src/stm32c0xx_hal_rcc_ex.c **** 
  59:Drivers/STM32C0xx_HAL_Driver/Src/stm32c0xx_hal_rcc_ex.c **** /** @defgroup RCCEx_Exported_Functions_Group1 Extended Peripheral Control functions
  60:Drivers/STM32C0xx_HAL_Driver/Src/stm32c0xx_hal_rcc_ex.c ****   *  @brief  Extended Peripheral Control functions
  61:Drivers/STM32C0xx_HAL_Driver/Src/stm32c0xx_hal_rcc_ex.c ****   *
  62:Drivers/STM32C0xx_HAL_Driver/Src/stm32c0xx_hal_rcc_ex.c **** @verbatim
  63:Drivers/STM32C0xx_HAL_Driver/Src/stm32c0xx_hal_rcc_ex.c ****  ===============================================================================
  64:Drivers/STM32C0xx_HAL_Driver/Src/stm32c0xx_hal_rcc_ex.c ****                 ##### Extended Peripheral Control functions  #####
  65:Drivers/STM32C0xx_HAL_Driver/Src/stm32c0xx_hal_rcc_ex.c ****  ===============================================================================
  66:Drivers/STM32C0xx_HAL_Driver/Src/stm32c0xx_hal_rcc_ex.c ****     [..]
  67:Drivers/STM32C0xx_HAL_Driver/Src/stm32c0xx_hal_rcc_ex.c ****     This subsection provides a set of functions allowing to control the RCC Clocks
  68:Drivers/STM32C0xx_HAL_Driver/Src/stm32c0xx_hal_rcc_ex.c ****     frequencies.
  69:Drivers/STM32C0xx_HAL_Driver/Src/stm32c0xx_hal_rcc_ex.c ****     [..]
  70:Drivers/STM32C0xx_HAL_Driver/Src/stm32c0xx_hal_rcc_ex.c ****     (@) Important note: Care must be taken when @ref HAL_RCCEx_PeriphCLKConfig() is used to
  71:Drivers/STM32C0xx_HAL_Driver/Src/stm32c0xx_hal_rcc_ex.c ****         select the RTC clock source; as consequence RTC registers and RCC_CSR1 register are
  72:Drivers/STM32C0xx_HAL_Driver/Src/stm32c0xx_hal_rcc_ex.c ****         set to their reset values.
  73:Drivers/STM32C0xx_HAL_Driver/Src/stm32c0xx_hal_rcc_ex.c **** 
  74:Drivers/STM32C0xx_HAL_Driver/Src/stm32c0xx_hal_rcc_ex.c **** @endverbatim
  75:Drivers/STM32C0xx_HAL_Driver/Src/stm32c0xx_hal_rcc_ex.c ****   * @{
  76:Drivers/STM32C0xx_HAL_Driver/Src/stm32c0xx_hal_rcc_ex.c ****   */
  77:Drivers/STM32C0xx_HAL_Driver/Src/stm32c0xx_hal_rcc_ex.c **** /**
  78:Drivers/STM32C0xx_HAL_Driver/Src/stm32c0xx_hal_rcc_ex.c ****   * @brief  Initialize the RCC extended peripherals clocks according to the specified
  79:Drivers/STM32C0xx_HAL_Driver/Src/stm32c0xx_hal_rcc_ex.c ****   *         parameters in the @ref RCC_PeriphCLKInitTypeDef.
  80:Drivers/STM32C0xx_HAL_Driver/Src/stm32c0xx_hal_rcc_ex.c ****   * @param  PeriphClkInit  pointer to a @ref RCC_PeriphCLKInitTypeDef structure that
  81:Drivers/STM32C0xx_HAL_Driver/Src/stm32c0xx_hal_rcc_ex.c ****   *         contains a field PeriphClockSelection which can be a combination of the following value
  82:Drivers/STM32C0xx_HAL_Driver/Src/stm32c0xx_hal_rcc_ex.c ****   *            @arg @ref RCC_PERIPHCLK_RTC  RTC peripheral clock
  83:Drivers/STM32C0xx_HAL_Driver/Src/stm32c0xx_hal_rcc_ex.c ****   *            @arg @ref RCC_PERIPHCLK_ADC    ADC peripheral clock
  84:Drivers/STM32C0xx_HAL_Driver/Src/stm32c0xx_hal_rcc_ex.c ****   *            @arg @ref RCC_PERIPHCLK_I2C1   I2C1 peripheral clock
  85:Drivers/STM32C0xx_HAL_Driver/Src/stm32c0xx_hal_rcc_ex.c ****   *            @arg @ref RCC_PERIPHCLK_I2S1   I2S1 peripheral clock
  86:Drivers/STM32C0xx_HAL_Driver/Src/stm32c0xx_hal_rcc_ex.c ****   *            @arg @ref RCC_PERIPHCLK_USART1 USART1 peripheral clock
  87:Drivers/STM32C0xx_HAL_Driver/Src/stm32c0xx_hal_rcc_ex.c ****   *            @arg @ref RCC_PERIPHCLK_USB     USB peripheral clock (*)
  88:Drivers/STM32C0xx_HAL_Driver/Src/stm32c0xx_hal_rcc_ex.c ****   *            @arg @ref RCC_PERIPHCLK_FDCAN1  FDCAN1 peripheral clock (*)
ARM GAS  C:\Users\BHUPEN~1\AppData\Local\Temp\ccJ4iBJ9.s 			page 3


  89:Drivers/STM32C0xx_HAL_Driver/Src/stm32c0xx_hal_rcc_ex.c ****   * @note   Care must be taken when @ref HAL_RCCEx_PeriphCLKConfig() is used to select
  90:Drivers/STM32C0xx_HAL_Driver/Src/stm32c0xx_hal_rcc_ex.c ****   *         the RTC clock source: in this case the access to RTC domain is enabled.
  91:Drivers/STM32C0xx_HAL_Driver/Src/stm32c0xx_hal_rcc_ex.c ****   * @note (*) not available on all devices
  92:Drivers/STM32C0xx_HAL_Driver/Src/stm32c0xx_hal_rcc_ex.c ****   *
  93:Drivers/STM32C0xx_HAL_Driver/Src/stm32c0xx_hal_rcc_ex.c ****   * @retval HAL status
  94:Drivers/STM32C0xx_HAL_Driver/Src/stm32c0xx_hal_rcc_ex.c ****   */
  95:Drivers/STM32C0xx_HAL_Driver/Src/stm32c0xx_hal_rcc_ex.c **** HAL_StatusTypeDef HAL_RCCEx_PeriphCLKConfig(const RCC_PeriphCLKInitTypeDef  *PeriphClkInit)
  96:Drivers/STM32C0xx_HAL_Driver/Src/stm32c0xx_hal_rcc_ex.c **** {
  28              		.loc 1 96 1 view -0
  29              		.cfi_startproc
  30              		@ args = 0, pretend = 0, frame = 8
  31              		@ frame_needed = 0, uses_anonymous_args = 0
  32              		.loc 1 96 1 is_stmt 0 view .LVU1
  33 0000 70B5     		push	{r4, r5, r6, lr}
  34              	.LCFI0:
  35              		.cfi_def_cfa_offset 16
  36              		.cfi_offset 4, -16
  37              		.cfi_offset 5, -12
  38              		.cfi_offset 6, -8
  39              		.cfi_offset 14, -4
  40 0002 82B0     		sub	sp, sp, #8
  41              	.LCFI1:
  42              		.cfi_def_cfa_offset 24
  43 0004 0400     		movs	r4, r0
  97:Drivers/STM32C0xx_HAL_Driver/Src/stm32c0xx_hal_rcc_ex.c ****   uint32_t tmpregister;
  44              		.loc 1 97 3 is_stmt 1 view .LVU2
  98:Drivers/STM32C0xx_HAL_Driver/Src/stm32c0xx_hal_rcc_ex.c ****   uint32_t tickstart;
  45              		.loc 1 98 3 view .LVU3
  99:Drivers/STM32C0xx_HAL_Driver/Src/stm32c0xx_hal_rcc_ex.c ****   HAL_StatusTypeDef ret    = HAL_OK;   /* Intermediate status */
  46              		.loc 1 99 3 view .LVU4
  47              	.LVL1:
 100:Drivers/STM32C0xx_HAL_Driver/Src/stm32c0xx_hal_rcc_ex.c ****   HAL_StatusTypeDef status = HAL_OK;   /* Final status */
  48              		.loc 1 100 3 view .LVU5
 101:Drivers/STM32C0xx_HAL_Driver/Src/stm32c0xx_hal_rcc_ex.c **** 
 102:Drivers/STM32C0xx_HAL_Driver/Src/stm32c0xx_hal_rcc_ex.c ****   /* Check the parameters */
 103:Drivers/STM32C0xx_HAL_Driver/Src/stm32c0xx_hal_rcc_ex.c ****   assert_param(IS_RCC_PERIPHCLOCK(PeriphClkInit->PeriphClockSelection));
  49              		.loc 1 103 3 view .LVU6
 104:Drivers/STM32C0xx_HAL_Driver/Src/stm32c0xx_hal_rcc_ex.c **** 
 105:Drivers/STM32C0xx_HAL_Driver/Src/stm32c0xx_hal_rcc_ex.c ****   /*-------------------------- RTC clock source configuration ----------------------*/
 106:Drivers/STM32C0xx_HAL_Driver/Src/stm32c0xx_hal_rcc_ex.c ****   if ((PeriphClkInit->PeriphClockSelection & RCC_PERIPHCLK_RTC) == RCC_PERIPHCLK_RTC)
  50              		.loc 1 106 3 view .LVU7
  51              		.loc 1 106 6 is_stmt 0 view .LVU8
  52 0006 0368     		ldr	r3, [r0]
  53 0008 5B06     		lsls	r3, r3, #25
  54 000a 4ED5     		bpl	.L16
  55              	.LBB2:
 107:Drivers/STM32C0xx_HAL_Driver/Src/stm32c0xx_hal_rcc_ex.c ****   {
 108:Drivers/STM32C0xx_HAL_Driver/Src/stm32c0xx_hal_rcc_ex.c ****     FlagStatus       pwrclkchanged = RESET;
  56              		.loc 1 108 5 is_stmt 1 view .LVU9
  57              	.LVL2:
 109:Drivers/STM32C0xx_HAL_Driver/Src/stm32c0xx_hal_rcc_ex.c **** 
 110:Drivers/STM32C0xx_HAL_Driver/Src/stm32c0xx_hal_rcc_ex.c ****     /* Check for RTC Parameters used to output RTCCLK */
 111:Drivers/STM32C0xx_HAL_Driver/Src/stm32c0xx_hal_rcc_ex.c ****     assert_param(IS_RCC_RTCCLKSOURCE(PeriphClkInit->RTCClockSelection));
  58              		.loc 1 111 5 view .LVU10
 112:Drivers/STM32C0xx_HAL_Driver/Src/stm32c0xx_hal_rcc_ex.c **** 
 113:Drivers/STM32C0xx_HAL_Driver/Src/stm32c0xx_hal_rcc_ex.c ****     /* Enable Power Clock */
 114:Drivers/STM32C0xx_HAL_Driver/Src/stm32c0xx_hal_rcc_ex.c ****     if (__HAL_RCC_PWR_IS_CLK_DISABLED())
ARM GAS  C:\Users\BHUPEN~1\AppData\Local\Temp\ccJ4iBJ9.s 			page 4


  59              		.loc 1 114 5 view .LVU11
  60              		.loc 1 114 9 is_stmt 0 view .LVU12
  61 000c 464B     		ldr	r3, .L21
  62 000e DB6B     		ldr	r3, [r3, #60]
  63              		.loc 1 114 8 view .LVU13
  64 0010 DB00     		lsls	r3, r3, #3
  65 0012 35D4     		bmi	.L17
 115:Drivers/STM32C0xx_HAL_Driver/Src/stm32c0xx_hal_rcc_ex.c ****     {
 116:Drivers/STM32C0xx_HAL_Driver/Src/stm32c0xx_hal_rcc_ex.c ****       __HAL_RCC_PWR_CLK_ENABLE();
  66              		.loc 1 116 7 is_stmt 1 view .LVU14
  67              	.LBB3:
  68              		.loc 1 116 7 view .LVU15
  69              		.loc 1 116 7 view .LVU16
  70 0014 444A     		ldr	r2, .L21
  71 0016 D16B     		ldr	r1, [r2, #60]
  72 0018 8020     		movs	r0, #128
  73              	.LVL3:
  74              		.loc 1 116 7 is_stmt 0 view .LVU17
  75 001a 4005     		lsls	r0, r0, #21
  76 001c 0143     		orrs	r1, r0
  77 001e D163     		str	r1, [r2, #60]
  78              		.loc 1 116 7 is_stmt 1 view .LVU18
  79 0020 D36B     		ldr	r3, [r2, #60]
  80 0022 0340     		ands	r3, r0
  81 0024 0193     		str	r3, [sp, #4]
  82              		.loc 1 116 7 view .LVU19
  83 0026 019B     		ldr	r3, [sp, #4]
  84              	.LBE3:
  85              		.loc 1 116 7 view .LVU20
 117:Drivers/STM32C0xx_HAL_Driver/Src/stm32c0xx_hal_rcc_ex.c ****       pwrclkchanged = SET;
  86              		.loc 1 117 7 view .LVU21
  87              	.LVL4:
  88              		.loc 1 117 21 is_stmt 0 view .LVU22
  89 0028 0125     		movs	r5, #1
  90              	.LVL5:
  91              	.L3:
 118:Drivers/STM32C0xx_HAL_Driver/Src/stm32c0xx_hal_rcc_ex.c ****     }
 119:Drivers/STM32C0xx_HAL_Driver/Src/stm32c0xx_hal_rcc_ex.c **** 
 120:Drivers/STM32C0xx_HAL_Driver/Src/stm32c0xx_hal_rcc_ex.c **** 
 121:Drivers/STM32C0xx_HAL_Driver/Src/stm32c0xx_hal_rcc_ex.c ****     /* Reset the RTC domain only if the RTC Clock source selection is modified from default */
 122:Drivers/STM32C0xx_HAL_Driver/Src/stm32c0xx_hal_rcc_ex.c ****     tmpregister = READ_BIT(RCC->CSR1, RCC_CSR1_RTCSEL);
  92              		.loc 1 122 5 is_stmt 1 view .LVU23
  93              		.loc 1 122 19 is_stmt 0 view .LVU24
  94 002a 3F4B     		ldr	r3, .L21
  95 002c D96D     		ldr	r1, [r3, #92]
  96              		.loc 1 122 17 view .LVU25
  97 002e C022     		movs	r2, #192
  98 0030 9200     		lsls	r2, r2, #2
  99 0032 0B00     		movs	r3, r1
 100 0034 1340     		ands	r3, r2
 101              	.LVL6:
 123:Drivers/STM32C0xx_HAL_Driver/Src/stm32c0xx_hal_rcc_ex.c **** 
 124:Drivers/STM32C0xx_HAL_Driver/Src/stm32c0xx_hal_rcc_ex.c ****     /* Reset the RTC domain only if the RTC Clock source selection is modified */
 125:Drivers/STM32C0xx_HAL_Driver/Src/stm32c0xx_hal_rcc_ex.c ****     if ((tmpregister != RCC_RTCCLKSOURCE_NONE) && (tmpregister != PeriphClkInit->RTCClockSelection)
 102              		.loc 1 125 5 is_stmt 1 view .LVU26
 103              		.loc 1 125 8 is_stmt 0 view .LVU27
 104 0036 1142     		tst	r1, r2
ARM GAS  C:\Users\BHUPEN~1\AppData\Local\Temp\ccJ4iBJ9.s 			page 5


 105 0038 10D0     		beq	.L4
 106              		.loc 1 125 48 discriminator 1 view .LVU28
 107 003a E269     		ldr	r2, [r4, #28]
 108 003c 9A42     		cmp	r2, r3
 109 003e 0DD0     		beq	.L4
 126:Drivers/STM32C0xx_HAL_Driver/Src/stm32c0xx_hal_rcc_ex.c ****     {
 127:Drivers/STM32C0xx_HAL_Driver/Src/stm32c0xx_hal_rcc_ex.c ****       /* Store the content of CSR1 register before the reset of RTC Domain */
 128:Drivers/STM32C0xx_HAL_Driver/Src/stm32c0xx_hal_rcc_ex.c ****       tmpregister = READ_BIT(RCC->CSR1, ~(RCC_CSR1_RTCSEL));
 110              		.loc 1 128 7 is_stmt 1 view .LVU29
 111              		.loc 1 128 21 is_stmt 0 view .LVU30
 112 0040 394A     		ldr	r2, .L21
 113 0042 D36D     		ldr	r3, [r2, #92]
 114              	.LVL7:
 115              		.loc 1 128 19 view .LVU31
 116 0044 3949     		ldr	r1, .L21+4
 117              	.LVL8:
 118              		.loc 1 128 19 view .LVU32
 119 0046 0B40     		ands	r3, r1
 120              	.LVL9:
 129:Drivers/STM32C0xx_HAL_Driver/Src/stm32c0xx_hal_rcc_ex.c ****       /* RTC Clock selection can be changed only if the RTC Domain is reset */
 130:Drivers/STM32C0xx_HAL_Driver/Src/stm32c0xx_hal_rcc_ex.c ****       __HAL_RCC_BACKUPRESET_FORCE();
 121              		.loc 1 130 7 is_stmt 1 view .LVU33
 122 0048 D06D     		ldr	r0, [r2, #92]
 123 004a 8021     		movs	r1, #128
 124 004c 4902     		lsls	r1, r1, #9
 125 004e 0143     		orrs	r1, r0
 126 0050 D165     		str	r1, [r2, #92]
 131:Drivers/STM32C0xx_HAL_Driver/Src/stm32c0xx_hal_rcc_ex.c ****       __HAL_RCC_BACKUPRESET_RELEASE();
 127              		.loc 1 131 7 view .LVU34
 128 0052 D16D     		ldr	r1, [r2, #92]
 129 0054 3648     		ldr	r0, .L21+8
 130 0056 0140     		ands	r1, r0
 131 0058 D165     		str	r1, [r2, #92]
 132:Drivers/STM32C0xx_HAL_Driver/Src/stm32c0xx_hal_rcc_ex.c ****       /* Restore the Content of CSR1 register */
 133:Drivers/STM32C0xx_HAL_Driver/Src/stm32c0xx_hal_rcc_ex.c ****       RCC->CSR1 = tmpregister;
 132              		.loc 1 133 7 view .LVU35
 133              		.loc 1 133 17 is_stmt 0 view .LVU36
 134 005a D365     		str	r3, [r2, #92]
 135              	.L4:
 134:Drivers/STM32C0xx_HAL_Driver/Src/stm32c0xx_hal_rcc_ex.c ****     }
 135:Drivers/STM32C0xx_HAL_Driver/Src/stm32c0xx_hal_rcc_ex.c **** 
 136:Drivers/STM32C0xx_HAL_Driver/Src/stm32c0xx_hal_rcc_ex.c ****     /* Wait for LSE reactivation if LSE was enable prior to RTC Domain reset */
 137:Drivers/STM32C0xx_HAL_Driver/Src/stm32c0xx_hal_rcc_ex.c ****     if (HAL_IS_BIT_SET(tmpregister, RCC_CSR1_LSEON))
 136              		.loc 1 137 5 is_stmt 1 view .LVU37
 137              		.loc 1 137 8 is_stmt 0 view .LVU38
 138 005c DB07     		lsls	r3, r3, #31
 139 005e 11D4     		bmi	.L19
 140              	.LVL10:
 141              	.L5:
 138:Drivers/STM32C0xx_HAL_Driver/Src/stm32c0xx_hal_rcc_ex.c ****     {
 139:Drivers/STM32C0xx_HAL_Driver/Src/stm32c0xx_hal_rcc_ex.c ****       /* Get Start Tick*/
 140:Drivers/STM32C0xx_HAL_Driver/Src/stm32c0xx_hal_rcc_ex.c ****       tickstart = HAL_GetTick();
 141:Drivers/STM32C0xx_HAL_Driver/Src/stm32c0xx_hal_rcc_ex.c **** 
 142:Drivers/STM32C0xx_HAL_Driver/Src/stm32c0xx_hal_rcc_ex.c ****       /* Wait till LSE is ready */
 143:Drivers/STM32C0xx_HAL_Driver/Src/stm32c0xx_hal_rcc_ex.c ****       while (READ_BIT(RCC->CSR1, RCC_CSR1_LSERDY) == 0U)
 144:Drivers/STM32C0xx_HAL_Driver/Src/stm32c0xx_hal_rcc_ex.c ****       {
 145:Drivers/STM32C0xx_HAL_Driver/Src/stm32c0xx_hal_rcc_ex.c ****         if ((HAL_GetTick() - tickstart) > RCC_LSE_TIMEOUT_VALUE)
ARM GAS  C:\Users\BHUPEN~1\AppData\Local\Temp\ccJ4iBJ9.s 			page 6


 146:Drivers/STM32C0xx_HAL_Driver/Src/stm32c0xx_hal_rcc_ex.c ****         {
 147:Drivers/STM32C0xx_HAL_Driver/Src/stm32c0xx_hal_rcc_ex.c ****           ret = HAL_TIMEOUT;
 148:Drivers/STM32C0xx_HAL_Driver/Src/stm32c0xx_hal_rcc_ex.c ****           break;
 149:Drivers/STM32C0xx_HAL_Driver/Src/stm32c0xx_hal_rcc_ex.c ****         }
 150:Drivers/STM32C0xx_HAL_Driver/Src/stm32c0xx_hal_rcc_ex.c ****       }
 151:Drivers/STM32C0xx_HAL_Driver/Src/stm32c0xx_hal_rcc_ex.c ****     }
 152:Drivers/STM32C0xx_HAL_Driver/Src/stm32c0xx_hal_rcc_ex.c **** 
 153:Drivers/STM32C0xx_HAL_Driver/Src/stm32c0xx_hal_rcc_ex.c ****     if (ret == HAL_OK)
 154:Drivers/STM32C0xx_HAL_Driver/Src/stm32c0xx_hal_rcc_ex.c ****     {
 155:Drivers/STM32C0xx_HAL_Driver/Src/stm32c0xx_hal_rcc_ex.c ****       /* Apply new RTC clock source selection */
 156:Drivers/STM32C0xx_HAL_Driver/Src/stm32c0xx_hal_rcc_ex.c ****       __HAL_RCC_RTC_CONFIG(PeriphClkInit->RTCClockSelection);
 142              		.loc 1 156 7 is_stmt 1 view .LVU39
 143 0060 314A     		ldr	r2, .L21
 144 0062 D36D     		ldr	r3, [r2, #92]
 145 0064 3149     		ldr	r1, .L21+4
 146 0066 0B40     		ands	r3, r1
 147 0068 E169     		ldr	r1, [r4, #28]
 148 006a 0B43     		orrs	r3, r1
 149 006c D365     		str	r3, [r2, #92]
 150              	.LBE2:
 100:Drivers/STM32C0xx_HAL_Driver/Src/stm32c0xx_hal_rcc_ex.c **** 
 151              		.loc 1 100 21 is_stmt 0 view .LVU40
 152 006e 0020     		movs	r0, #0
 153              	.L9:
 154              	.LVL11:
 155              	.LBB4:
 157:Drivers/STM32C0xx_HAL_Driver/Src/stm32c0xx_hal_rcc_ex.c ****     }
 158:Drivers/STM32C0xx_HAL_Driver/Src/stm32c0xx_hal_rcc_ex.c ****     else
 159:Drivers/STM32C0xx_HAL_Driver/Src/stm32c0xx_hal_rcc_ex.c ****     {
 160:Drivers/STM32C0xx_HAL_Driver/Src/stm32c0xx_hal_rcc_ex.c ****       /* set overall return value */
 161:Drivers/STM32C0xx_HAL_Driver/Src/stm32c0xx_hal_rcc_ex.c ****       status = ret;
 162:Drivers/STM32C0xx_HAL_Driver/Src/stm32c0xx_hal_rcc_ex.c ****     }
 163:Drivers/STM32C0xx_HAL_Driver/Src/stm32c0xx_hal_rcc_ex.c **** 
 164:Drivers/STM32C0xx_HAL_Driver/Src/stm32c0xx_hal_rcc_ex.c ****     /* Restore clock configuration if changed */
 165:Drivers/STM32C0xx_HAL_Driver/Src/stm32c0xx_hal_rcc_ex.c ****     if (pwrclkchanged == SET)
 156              		.loc 1 165 5 is_stmt 1 view .LVU41
 157              		.loc 1 165 8 is_stmt 0 view .LVU42
 158 0070 012D     		cmp	r5, #1
 159 0072 1BD1     		bne	.L2
 166:Drivers/STM32C0xx_HAL_Driver/Src/stm32c0xx_hal_rcc_ex.c ****     {
 167:Drivers/STM32C0xx_HAL_Driver/Src/stm32c0xx_hal_rcc_ex.c ****       __HAL_RCC_PWR_CLK_DISABLE();
 160              		.loc 1 167 7 is_stmt 1 view .LVU43
 161 0074 2C4A     		ldr	r2, .L21
 162 0076 D36B     		ldr	r3, [r2, #60]
 163 0078 2E49     		ldr	r1, .L21+12
 164 007a 0B40     		ands	r3, r1
 165 007c D363     		str	r3, [r2, #60]
 166 007e 15E0     		b	.L2
 167              	.LVL12:
 168              	.L17:
 108:Drivers/STM32C0xx_HAL_Driver/Src/stm32c0xx_hal_rcc_ex.c **** 
 169              		.loc 1 108 22 is_stmt 0 view .LVU44
 170 0080 0025     		movs	r5, #0
 171 0082 D2E7     		b	.L3
 172              	.LVL13:
 173              	.L19:
 140:Drivers/STM32C0xx_HAL_Driver/Src/stm32c0xx_hal_rcc_ex.c **** 
ARM GAS  C:\Users\BHUPEN~1\AppData\Local\Temp\ccJ4iBJ9.s 			page 7


 174              		.loc 1 140 7 is_stmt 1 view .LVU45
 140:Drivers/STM32C0xx_HAL_Driver/Src/stm32c0xx_hal_rcc_ex.c **** 
 175              		.loc 1 140 19 is_stmt 0 view .LVU46
 176 0084 FFF7FEFF 		bl	HAL_GetTick
 177              	.LVL14:
 178 0088 0600     		movs	r6, r0
 179              	.LVL15:
 143:Drivers/STM32C0xx_HAL_Driver/Src/stm32c0xx_hal_rcc_ex.c ****       {
 180              		.loc 1 143 7 is_stmt 1 view .LVU47
 181              	.L6:
 143:Drivers/STM32C0xx_HAL_Driver/Src/stm32c0xx_hal_rcc_ex.c ****       {
 182              		.loc 1 143 13 view .LVU48
 143:Drivers/STM32C0xx_HAL_Driver/Src/stm32c0xx_hal_rcc_ex.c ****       {
 183              		.loc 1 143 14 is_stmt 0 view .LVU49
 184 008a 274B     		ldr	r3, .L21
 185 008c DB6D     		ldr	r3, [r3, #92]
 143:Drivers/STM32C0xx_HAL_Driver/Src/stm32c0xx_hal_rcc_ex.c ****       {
 186              		.loc 1 143 13 view .LVU50
 187 008e 9B07     		lsls	r3, r3, #30
 188 0090 07D4     		bmi	.L20
 145:Drivers/STM32C0xx_HAL_Driver/Src/stm32c0xx_hal_rcc_ex.c ****         {
 189              		.loc 1 145 9 is_stmt 1 view .LVU51
 145:Drivers/STM32C0xx_HAL_Driver/Src/stm32c0xx_hal_rcc_ex.c ****         {
 190              		.loc 1 145 14 is_stmt 0 view .LVU52
 191 0092 FFF7FEFF 		bl	HAL_GetTick
 192              	.LVL16:
 145:Drivers/STM32C0xx_HAL_Driver/Src/stm32c0xx_hal_rcc_ex.c ****         {
 193              		.loc 1 145 28 view .LVU53
 194 0096 801B     		subs	r0, r0, r6
 145:Drivers/STM32C0xx_HAL_Driver/Src/stm32c0xx_hal_rcc_ex.c ****         {
 195              		.loc 1 145 12 view .LVU54
 196 0098 274B     		ldr	r3, .L21+16
 197 009a 9842     		cmp	r0, r3
 198 009c F5D9     		bls	.L6
 147:Drivers/STM32C0xx_HAL_Driver/Src/stm32c0xx_hal_rcc_ex.c ****           break;
 199              		.loc 1 147 15 view .LVU55
 200 009e 0320     		movs	r0, #3
 201 00a0 00E0     		b	.L7
 202              	.L20:
 147:Drivers/STM32C0xx_HAL_Driver/Src/stm32c0xx_hal_rcc_ex.c ****           break;
 203              		.loc 1 147 15 view .LVU56
 204              	.LBE4:
  99:Drivers/STM32C0xx_HAL_Driver/Src/stm32c0xx_hal_rcc_ex.c ****   HAL_StatusTypeDef status = HAL_OK;   /* Final status */
 205              		.loc 1 99 21 view .LVU57
 206 00a2 0020     		movs	r0, #0
 207              	.L7:
 208              	.LVL17:
 209              	.LBB5:
 153:Drivers/STM32C0xx_HAL_Driver/Src/stm32c0xx_hal_rcc_ex.c ****     {
 210              		.loc 1 153 5 is_stmt 1 view .LVU58
 153:Drivers/STM32C0xx_HAL_Driver/Src/stm32c0xx_hal_rcc_ex.c ****     {
 211              		.loc 1 153 8 is_stmt 0 view .LVU59
 212 00a4 0028     		cmp	r0, #0
 213 00a6 E3D1     		bne	.L9
 214 00a8 DAE7     		b	.L5
 215              	.LVL18:
 216              	.L16:
ARM GAS  C:\Users\BHUPEN~1\AppData\Local\Temp\ccJ4iBJ9.s 			page 8


 153:Drivers/STM32C0xx_HAL_Driver/Src/stm32c0xx_hal_rcc_ex.c ****     {
 217              		.loc 1 153 8 view .LVU60
 218              	.LBE5:
 100:Drivers/STM32C0xx_HAL_Driver/Src/stm32c0xx_hal_rcc_ex.c **** 
 219              		.loc 1 100 21 view .LVU61
 220 00aa 0020     		movs	r0, #0
 221              	.LVL19:
 222              	.L2:
 168:Drivers/STM32C0xx_HAL_Driver/Src/stm32c0xx_hal_rcc_ex.c ****     }
 169:Drivers/STM32C0xx_HAL_Driver/Src/stm32c0xx_hal_rcc_ex.c ****   }
 170:Drivers/STM32C0xx_HAL_Driver/Src/stm32c0xx_hal_rcc_ex.c **** 
 171:Drivers/STM32C0xx_HAL_Driver/Src/stm32c0xx_hal_rcc_ex.c ****   /*-------------------------- USART1 clock source configuration -------------------*/
 172:Drivers/STM32C0xx_HAL_Driver/Src/stm32c0xx_hal_rcc_ex.c ****   if (((PeriphClkInit->PeriphClockSelection) & RCC_PERIPHCLK_USART1) == RCC_PERIPHCLK_USART1)
 223              		.loc 1 172 3 is_stmt 1 view .LVU62
 224              		.loc 1 172 6 is_stmt 0 view .LVU63
 225 00ac 2368     		ldr	r3, [r4]
 226 00ae DB07     		lsls	r3, r3, #31
 227 00b0 06D5     		bpl	.L10
 173:Drivers/STM32C0xx_HAL_Driver/Src/stm32c0xx_hal_rcc_ex.c ****   {
 174:Drivers/STM32C0xx_HAL_Driver/Src/stm32c0xx_hal_rcc_ex.c ****     /* Check the parameters */
 175:Drivers/STM32C0xx_HAL_Driver/Src/stm32c0xx_hal_rcc_ex.c ****     assert_param(IS_RCC_USART1CLKSOURCE(PeriphClkInit->Usart1ClockSelection));
 228              		.loc 1 175 5 is_stmt 1 view .LVU64
 176:Drivers/STM32C0xx_HAL_Driver/Src/stm32c0xx_hal_rcc_ex.c **** 
 177:Drivers/STM32C0xx_HAL_Driver/Src/stm32c0xx_hal_rcc_ex.c ****     /* Configure the USART1 clock source */
 178:Drivers/STM32C0xx_HAL_Driver/Src/stm32c0xx_hal_rcc_ex.c ****     __HAL_RCC_USART1_CONFIG(PeriphClkInit->Usart1ClockSelection);
 229              		.loc 1 178 5 view .LVU65
 230 00b2 1D4A     		ldr	r2, .L21
 231 00b4 536D     		ldr	r3, [r2, #84]
 232 00b6 0321     		movs	r1, #3
 233 00b8 8B43     		bics	r3, r1
 234 00ba A168     		ldr	r1, [r4, #8]
 235 00bc 0B43     		orrs	r3, r1
 236 00be 5365     		str	r3, [r2, #84]
 237              	.L10:
 179:Drivers/STM32C0xx_HAL_Driver/Src/stm32c0xx_hal_rcc_ex.c ****   }
 180:Drivers/STM32C0xx_HAL_Driver/Src/stm32c0xx_hal_rcc_ex.c **** 
 181:Drivers/STM32C0xx_HAL_Driver/Src/stm32c0xx_hal_rcc_ex.c ****   /*-------------------------- I2C1 clock source configuration ---------------------*/
 182:Drivers/STM32C0xx_HAL_Driver/Src/stm32c0xx_hal_rcc_ex.c ****   if (((PeriphClkInit->PeriphClockSelection) & RCC_PERIPHCLK_I2C1) == RCC_PERIPHCLK_I2C1)
 238              		.loc 1 182 3 view .LVU66
 239              		.loc 1 182 6 is_stmt 0 view .LVU67
 240 00c0 2368     		ldr	r3, [r4]
 241 00c2 9B07     		lsls	r3, r3, #30
 242 00c4 06D5     		bpl	.L11
 183:Drivers/STM32C0xx_HAL_Driver/Src/stm32c0xx_hal_rcc_ex.c ****   {
 184:Drivers/STM32C0xx_HAL_Driver/Src/stm32c0xx_hal_rcc_ex.c ****     /* Check the parameters */
 185:Drivers/STM32C0xx_HAL_Driver/Src/stm32c0xx_hal_rcc_ex.c ****     assert_param(IS_RCC_I2C1CLKSOURCE(PeriphClkInit->I2c1ClockSelection));
 243              		.loc 1 185 5 is_stmt 1 view .LVU68
 186:Drivers/STM32C0xx_HAL_Driver/Src/stm32c0xx_hal_rcc_ex.c **** 
 187:Drivers/STM32C0xx_HAL_Driver/Src/stm32c0xx_hal_rcc_ex.c ****     /* Configure the I2C1 clock source */
 188:Drivers/STM32C0xx_HAL_Driver/Src/stm32c0xx_hal_rcc_ex.c ****     __HAL_RCC_I2C1_CONFIG(PeriphClkInit->I2c1ClockSelection);
 244              		.loc 1 188 5 view .LVU69
 245 00c6 184A     		ldr	r2, .L21
 246 00c8 536D     		ldr	r3, [r2, #84]
 247 00ca 1C49     		ldr	r1, .L21+20
 248 00cc 0B40     		ands	r3, r1
 249 00ce E168     		ldr	r1, [r4, #12]
 250 00d0 0B43     		orrs	r3, r1
ARM GAS  C:\Users\BHUPEN~1\AppData\Local\Temp\ccJ4iBJ9.s 			page 9


 251 00d2 5365     		str	r3, [r2, #84]
 252              	.L11:
 189:Drivers/STM32C0xx_HAL_Driver/Src/stm32c0xx_hal_rcc_ex.c ****   }
 190:Drivers/STM32C0xx_HAL_Driver/Src/stm32c0xx_hal_rcc_ex.c **** 
 191:Drivers/STM32C0xx_HAL_Driver/Src/stm32c0xx_hal_rcc_ex.c ****   /*-------------------------- ADC clock source configuration ----------------------*/
 192:Drivers/STM32C0xx_HAL_Driver/Src/stm32c0xx_hal_rcc_ex.c ****   if (((PeriphClkInit->PeriphClockSelection) & RCC_PERIPHCLK_ADC) == RCC_PERIPHCLK_ADC)
 253              		.loc 1 192 3 view .LVU70
 254              		.loc 1 192 6 is_stmt 0 view .LVU71
 255 00d4 2368     		ldr	r3, [r4]
 256 00d6 9B06     		lsls	r3, r3, #26
 257 00d8 06D5     		bpl	.L12
 193:Drivers/STM32C0xx_HAL_Driver/Src/stm32c0xx_hal_rcc_ex.c ****   {
 194:Drivers/STM32C0xx_HAL_Driver/Src/stm32c0xx_hal_rcc_ex.c ****     /* Check the parameters */
 195:Drivers/STM32C0xx_HAL_Driver/Src/stm32c0xx_hal_rcc_ex.c ****     assert_param(IS_RCC_ADCCLKSOURCE(PeriphClkInit->AdcClockSelection));
 258              		.loc 1 195 5 is_stmt 1 view .LVU72
 196:Drivers/STM32C0xx_HAL_Driver/Src/stm32c0xx_hal_rcc_ex.c **** 
 197:Drivers/STM32C0xx_HAL_Driver/Src/stm32c0xx_hal_rcc_ex.c ****     /* Configure the ADC interface clock source */
 198:Drivers/STM32C0xx_HAL_Driver/Src/stm32c0xx_hal_rcc_ex.c ****     __HAL_RCC_ADC_CONFIG(PeriphClkInit->AdcClockSelection);
 259              		.loc 1 198 5 view .LVU73
 260 00da 134A     		ldr	r2, .L21
 261 00dc 536D     		ldr	r3, [r2, #84]
 262 00de 9B00     		lsls	r3, r3, #2
 263 00e0 9B08     		lsrs	r3, r3, #2
 264 00e2 A169     		ldr	r1, [r4, #24]
 265 00e4 0B43     		orrs	r3, r1
 266 00e6 5365     		str	r3, [r2, #84]
 267              	.L12:
 199:Drivers/STM32C0xx_HAL_Driver/Src/stm32c0xx_hal_rcc_ex.c **** 
 200:Drivers/STM32C0xx_HAL_Driver/Src/stm32c0xx_hal_rcc_ex.c ****   }
 201:Drivers/STM32C0xx_HAL_Driver/Src/stm32c0xx_hal_rcc_ex.c **** #if defined (USB_DRD_FS)
 202:Drivers/STM32C0xx_HAL_Driver/Src/stm32c0xx_hal_rcc_ex.c ****   /*-------------------------- USB clock source configuration ----------------*/
 203:Drivers/STM32C0xx_HAL_Driver/Src/stm32c0xx_hal_rcc_ex.c ****   if (((PeriphClkInit->PeriphClockSelection) & RCC_PERIPHCLK_USB) == RCC_PERIPHCLK_USB)
 204:Drivers/STM32C0xx_HAL_Driver/Src/stm32c0xx_hal_rcc_ex.c ****   {
 205:Drivers/STM32C0xx_HAL_Driver/Src/stm32c0xx_hal_rcc_ex.c ****     /* Check the parameters */
 206:Drivers/STM32C0xx_HAL_Driver/Src/stm32c0xx_hal_rcc_ex.c ****     assert_param(IS_RCC_USBCLKSOURCE(PeriphClkInit->UsbClockSelection));
 207:Drivers/STM32C0xx_HAL_Driver/Src/stm32c0xx_hal_rcc_ex.c **** 
 208:Drivers/STM32C0xx_HAL_Driver/Src/stm32c0xx_hal_rcc_ex.c ****     /* Configure the USB clock source */
 209:Drivers/STM32C0xx_HAL_Driver/Src/stm32c0xx_hal_rcc_ex.c ****     __HAL_RCC_USB_CONFIG(PeriphClkInit->UsbClockSelection);
 210:Drivers/STM32C0xx_HAL_Driver/Src/stm32c0xx_hal_rcc_ex.c **** 
 211:Drivers/STM32C0xx_HAL_Driver/Src/stm32c0xx_hal_rcc_ex.c ****   }
 212:Drivers/STM32C0xx_HAL_Driver/Src/stm32c0xx_hal_rcc_ex.c **** #endif /* USB_DRD_FS */
 213:Drivers/STM32C0xx_HAL_Driver/Src/stm32c0xx_hal_rcc_ex.c **** #if defined (FDCAN1)
 214:Drivers/STM32C0xx_HAL_Driver/Src/stm32c0xx_hal_rcc_ex.c ****   /*-------------------------- FDCAN1 clock source configuration ----------------*/
 215:Drivers/STM32C0xx_HAL_Driver/Src/stm32c0xx_hal_rcc_ex.c ****   if (((PeriphClkInit->PeriphClockSelection) & RCC_PERIPHCLK_FDCAN1) == RCC_PERIPHCLK_FDCAN1)
 268              		.loc 1 215 3 view .LVU74
 269              		.loc 1 215 6 is_stmt 0 view .LVU75
 270 00e8 2368     		ldr	r3, [r4]
 271 00ea DB06     		lsls	r3, r3, #27
 272 00ec 06D5     		bpl	.L13
 216:Drivers/STM32C0xx_HAL_Driver/Src/stm32c0xx_hal_rcc_ex.c ****   {
 217:Drivers/STM32C0xx_HAL_Driver/Src/stm32c0xx_hal_rcc_ex.c ****     /* Check the parameters */
 218:Drivers/STM32C0xx_HAL_Driver/Src/stm32c0xx_hal_rcc_ex.c ****     assert_param(IS_RCC_FDCAN1CLKSOURCE(PeriphClkInit->Fdcan1ClockSelection));
 273              		.loc 1 218 5 is_stmt 1 view .LVU76
 219:Drivers/STM32C0xx_HAL_Driver/Src/stm32c0xx_hal_rcc_ex.c **** 
 220:Drivers/STM32C0xx_HAL_Driver/Src/stm32c0xx_hal_rcc_ex.c ****     /* Configure the FDCAN1 clock source */
 221:Drivers/STM32C0xx_HAL_Driver/Src/stm32c0xx_hal_rcc_ex.c ****     __HAL_RCC_FDCAN1_CONFIG(PeriphClkInit->Fdcan1ClockSelection);
 274              		.loc 1 221 5 view .LVU77
ARM GAS  C:\Users\BHUPEN~1\AppData\Local\Temp\ccJ4iBJ9.s 			page 10


 275 00ee 0E4A     		ldr	r2, .L21
 276 00f0 536D     		ldr	r3, [r2, #84]
 277 00f2 0E49     		ldr	r1, .L21+4
 278 00f4 0B40     		ands	r3, r1
 279 00f6 6169     		ldr	r1, [r4, #20]
 280 00f8 0B43     		orrs	r3, r1
 281 00fa 5365     		str	r3, [r2, #84]
 282              	.L13:
 222:Drivers/STM32C0xx_HAL_Driver/Src/stm32c0xx_hal_rcc_ex.c **** 
 223:Drivers/STM32C0xx_HAL_Driver/Src/stm32c0xx_hal_rcc_ex.c ****   }
 224:Drivers/STM32C0xx_HAL_Driver/Src/stm32c0xx_hal_rcc_ex.c **** #endif /* FDCAN1 */
 225:Drivers/STM32C0xx_HAL_Driver/Src/stm32c0xx_hal_rcc_ex.c ****   /*-------------------------- I2S1 clock source configuration ---------------------*/
 226:Drivers/STM32C0xx_HAL_Driver/Src/stm32c0xx_hal_rcc_ex.c ****   if (((PeriphClkInit->PeriphClockSelection) & RCC_PERIPHCLK_I2S1) == RCC_PERIPHCLK_I2S1)
 283              		.loc 1 226 3 view .LVU78
 284              		.loc 1 226 6 is_stmt 0 view .LVU79
 285 00fc 2368     		ldr	r3, [r4]
 286 00fe 5B07     		lsls	r3, r3, #29
 287 0100 06D5     		bpl	.L14
 227:Drivers/STM32C0xx_HAL_Driver/Src/stm32c0xx_hal_rcc_ex.c ****   {
 228:Drivers/STM32C0xx_HAL_Driver/Src/stm32c0xx_hal_rcc_ex.c ****     /* Check the parameters */
 229:Drivers/STM32C0xx_HAL_Driver/Src/stm32c0xx_hal_rcc_ex.c ****     assert_param(IS_RCC_I2S1CLKSOURCE(PeriphClkInit->I2s1ClockSelection));
 288              		.loc 1 229 5 is_stmt 1 view .LVU80
 230:Drivers/STM32C0xx_HAL_Driver/Src/stm32c0xx_hal_rcc_ex.c **** 
 231:Drivers/STM32C0xx_HAL_Driver/Src/stm32c0xx_hal_rcc_ex.c ****     /* Configure the I2S1 clock source */
 232:Drivers/STM32C0xx_HAL_Driver/Src/stm32c0xx_hal_rcc_ex.c ****     __HAL_RCC_I2S1_CONFIG(PeriphClkInit->I2s1ClockSelection);
 289              		.loc 1 232 5 view .LVU81
 290 0102 094A     		ldr	r2, .L21
 291 0104 536D     		ldr	r3, [r2, #84]
 292 0106 0E49     		ldr	r1, .L21+24
 293 0108 0B40     		ands	r3, r1
 294 010a 2169     		ldr	r1, [r4, #16]
 295 010c 0B43     		orrs	r3, r1
 296 010e 5365     		str	r3, [r2, #84]
 297              	.L14:
 233:Drivers/STM32C0xx_HAL_Driver/Src/stm32c0xx_hal_rcc_ex.c ****   }
 234:Drivers/STM32C0xx_HAL_Driver/Src/stm32c0xx_hal_rcc_ex.c ****   /*------------------------------------ HSI Kernel clock source configuration --------------------
 235:Drivers/STM32C0xx_HAL_Driver/Src/stm32c0xx_hal_rcc_ex.c ****   if (((PeriphClkInit->PeriphClockSelection) & RCC_PERIPHCLK_HSIKER) == RCC_PERIPHCLK_HSIKER)
 298              		.loc 1 235 3 view .LVU82
 299              		.loc 1 235 6 is_stmt 0 view .LVU83
 300 0110 2368     		ldr	r3, [r4]
 301 0112 1B06     		lsls	r3, r3, #24
 302 0114 06D5     		bpl	.L15
 236:Drivers/STM32C0xx_HAL_Driver/Src/stm32c0xx_hal_rcc_ex.c ****   {
 237:Drivers/STM32C0xx_HAL_Driver/Src/stm32c0xx_hal_rcc_ex.c ****     /* Check the parameters */
 238:Drivers/STM32C0xx_HAL_Driver/Src/stm32c0xx_hal_rcc_ex.c ****     assert_param(IS_RCC_HSIKERDIV(PeriphClkInit->HSIKerClockDivider));
 303              		.loc 1 238 5 is_stmt 1 view .LVU84
 239:Drivers/STM32C0xx_HAL_Driver/Src/stm32c0xx_hal_rcc_ex.c **** 
 240:Drivers/STM32C0xx_HAL_Driver/Src/stm32c0xx_hal_rcc_ex.c ****     /* Configure the HSI Kernel clock source Divider */
 241:Drivers/STM32C0xx_HAL_Driver/Src/stm32c0xx_hal_rcc_ex.c ****     __HAL_RCC_HSIKER_CONFIG(PeriphClkInit->HSIKerClockDivider);
 304              		.loc 1 241 5 view .LVU85
 305 0116 044A     		ldr	r2, .L21
 306 0118 1368     		ldr	r3, [r2]
 307 011a E021     		movs	r1, #224
 308 011c 8B43     		bics	r3, r1
 309 011e 6168     		ldr	r1, [r4, #4]
 310 0120 0B43     		orrs	r3, r1
 311 0122 1360     		str	r3, [r2]
ARM GAS  C:\Users\BHUPEN~1\AppData\Local\Temp\ccJ4iBJ9.s 			page 11


 312              	.L15:
 242:Drivers/STM32C0xx_HAL_Driver/Src/stm32c0xx_hal_rcc_ex.c ****   }
 243:Drivers/STM32C0xx_HAL_Driver/Src/stm32c0xx_hal_rcc_ex.c ****   return status;
 313              		.loc 1 243 3 view .LVU86
 244:Drivers/STM32C0xx_HAL_Driver/Src/stm32c0xx_hal_rcc_ex.c **** }
 314              		.loc 1 244 1 is_stmt 0 view .LVU87
 315 0124 02B0     		add	sp, sp, #8
 316              		@ sp needed
 317              	.LVL20:
 318              		.loc 1 244 1 view .LVU88
 319 0126 70BD     		pop	{r4, r5, r6, pc}
 320              	.L22:
 321              		.align	2
 322              	.L21:
 323 0128 00100240 		.word	1073876992
 324 012c FFFCFFFF 		.word	-769
 325 0130 FFFFFEFF 		.word	-65537
 326 0134 FFFFFFEF 		.word	-268435457
 327 0138 88130000 		.word	5000
 328 013c FFCFFFFF 		.word	-12289
 329 0140 FF3FFFFF 		.word	-49153
 330              		.cfi_endproc
 331              	.LFE230:
 333              		.section	.text.HAL_RCCEx_GetPeriphCLKConfig,"ax",%progbits
 334              		.align	1
 335              		.global	HAL_RCCEx_GetPeriphCLKConfig
 336              		.syntax unified
 337              		.code	16
 338              		.thumb_func
 339              		.fpu softvfp
 341              	HAL_RCCEx_GetPeriphCLKConfig:
 342              	.LVL21:
 343              	.LFB231:
 245:Drivers/STM32C0xx_HAL_Driver/Src/stm32c0xx_hal_rcc_ex.c **** 
 246:Drivers/STM32C0xx_HAL_Driver/Src/stm32c0xx_hal_rcc_ex.c **** /**
 247:Drivers/STM32C0xx_HAL_Driver/Src/stm32c0xx_hal_rcc_ex.c ****   * @brief  Get the RCC_ClkInitStruct according to the internal RCC configuration registers.
 248:Drivers/STM32C0xx_HAL_Driver/Src/stm32c0xx_hal_rcc_ex.c ****   * @param  PeriphClkInit pointer to an RCC_PeriphCLKInitTypeDef structure that
 249:Drivers/STM32C0xx_HAL_Driver/Src/stm32c0xx_hal_rcc_ex.c ****   *         returns the configuration information for the Extended Peripherals
 250:Drivers/STM32C0xx_HAL_Driver/Src/stm32c0xx_hal_rcc_ex.c ****   *         clocks: I2C1, I2S1, USART1, RTC, ADC,
 251:Drivers/STM32C0xx_HAL_Driver/Src/stm32c0xx_hal_rcc_ex.c ****   * @retval None
 252:Drivers/STM32C0xx_HAL_Driver/Src/stm32c0xx_hal_rcc_ex.c ****   */
 253:Drivers/STM32C0xx_HAL_Driver/Src/stm32c0xx_hal_rcc_ex.c **** void HAL_RCCEx_GetPeriphCLKConfig(RCC_PeriphCLKInitTypeDef  *PeriphClkInit)
 254:Drivers/STM32C0xx_HAL_Driver/Src/stm32c0xx_hal_rcc_ex.c **** {
 344              		.loc 1 254 1 is_stmt 1 view -0
 345              		.cfi_startproc
 346              		@ args = 0, pretend = 0, frame = 0
 347              		@ frame_needed = 0, uses_anonymous_args = 0
 348              		.loc 1 254 1 is_stmt 0 view .LVU90
 349 0000 10B5     		push	{r4, lr}
 350              	.LCFI2:
 351              		.cfi_def_cfa_offset 8
 352              		.cfi_offset 4, -8
 353              		.cfi_offset 14, -4
 255:Drivers/STM32C0xx_HAL_Driver/Src/stm32c0xx_hal_rcc_ex.c ****   /* Set all possible values for the extended clock type parameter------------*/
 256:Drivers/STM32C0xx_HAL_Driver/Src/stm32c0xx_hal_rcc_ex.c ****   PeriphClkInit->PeriphClockSelection = RCC_PERIPHCLK_USART1 | RCC_PERIPHCLK_I2C1 | RCC_PERIPHCLK_I
 354              		.loc 1 256 3 is_stmt 1 view .LVU91
 355              		.loc 1 256 39 is_stmt 0 view .LVU92
ARM GAS  C:\Users\BHUPEN~1\AppData\Local\Temp\ccJ4iBJ9.s 			page 12


 356 0002 E723     		movs	r3, #231
 357 0004 0360     		str	r3, [r0]
 257:Drivers/STM32C0xx_HAL_Driver/Src/stm32c0xx_hal_rcc_ex.c ****                                         RCC_PERIPHCLK_ADC    | RCC_PERIPHCLK_RTC  | RCC_PERIPHCLK_H
 258:Drivers/STM32C0xx_HAL_Driver/Src/stm32c0xx_hal_rcc_ex.c **** 
 259:Drivers/STM32C0xx_HAL_Driver/Src/stm32c0xx_hal_rcc_ex.c **** #if defined(USB_DRD_FS)
 260:Drivers/STM32C0xx_HAL_Driver/Src/stm32c0xx_hal_rcc_ex.c ****   PeriphClkInit->PeriphClockSelection |= RCC_PERIPHCLK_USB;
 261:Drivers/STM32C0xx_HAL_Driver/Src/stm32c0xx_hal_rcc_ex.c **** #endif /* USB_DRD_FS */
 262:Drivers/STM32C0xx_HAL_Driver/Src/stm32c0xx_hal_rcc_ex.c **** #if defined(FDCAN1)
 263:Drivers/STM32C0xx_HAL_Driver/Src/stm32c0xx_hal_rcc_ex.c ****   PeriphClkInit->PeriphClockSelection |= RCC_PERIPHCLK_FDCAN1;
 358              		.loc 1 263 3 is_stmt 1 view .LVU93
 359              		.loc 1 263 39 is_stmt 0 view .LVU94
 360 0006 1033     		adds	r3, r3, #16
 361 0008 0360     		str	r3, [r0]
 264:Drivers/STM32C0xx_HAL_Driver/Src/stm32c0xx_hal_rcc_ex.c **** #endif /* FDCAN1 */
 265:Drivers/STM32C0xx_HAL_Driver/Src/stm32c0xx_hal_rcc_ex.c ****   /* Get the USART1 clock source ---------------------------------------------*/
 266:Drivers/STM32C0xx_HAL_Driver/Src/stm32c0xx_hal_rcc_ex.c ****   PeriphClkInit->Usart1ClockSelection  = __HAL_RCC_GET_USART1_SOURCE();
 362              		.loc 1 266 3 is_stmt 1 view .LVU95
 363              		.loc 1 266 42 is_stmt 0 view .LVU96
 364 000a 104B     		ldr	r3, .L24
 365 000c 596D     		ldr	r1, [r3, #84]
 366 000e 0322     		movs	r2, #3
 367 0010 0A40     		ands	r2, r1
 368              		.loc 1 266 40 view .LVU97
 369 0012 8260     		str	r2, [r0, #8]
 267:Drivers/STM32C0xx_HAL_Driver/Src/stm32c0xx_hal_rcc_ex.c **** 
 268:Drivers/STM32C0xx_HAL_Driver/Src/stm32c0xx_hal_rcc_ex.c ****   /* Get the I2C1 clock source -----------------------------------------------*/
 269:Drivers/STM32C0xx_HAL_Driver/Src/stm32c0xx_hal_rcc_ex.c ****   PeriphClkInit->I2c1ClockSelection    = __HAL_RCC_GET_I2C1_SOURCE();
 370              		.loc 1 269 3 is_stmt 1 view .LVU98
 371              		.loc 1 269 42 is_stmt 0 view .LVU99
 372 0014 5A6D     		ldr	r2, [r3, #84]
 373 0016 C021     		movs	r1, #192
 374 0018 8901     		lsls	r1, r1, #6
 375 001a 0A40     		ands	r2, r1
 376              		.loc 1 269 40 view .LVU100
 377 001c C260     		str	r2, [r0, #12]
 270:Drivers/STM32C0xx_HAL_Driver/Src/stm32c0xx_hal_rcc_ex.c **** 
 271:Drivers/STM32C0xx_HAL_Driver/Src/stm32c0xx_hal_rcc_ex.c ****   /* Get the RTC clock source ------------------------------------------------*/
 272:Drivers/STM32C0xx_HAL_Driver/Src/stm32c0xx_hal_rcc_ex.c ****   PeriphClkInit->RTCClockSelection     = __HAL_RCC_GET_RTC_SOURCE();
 378              		.loc 1 272 3 is_stmt 1 view .LVU101
 379              		.loc 1 272 42 is_stmt 0 view .LVU102
 380 001e D96D     		ldr	r1, [r3, #92]
 381 0020 C024     		movs	r4, #192
 382 0022 A400     		lsls	r4, r4, #2
 383 0024 2140     		ands	r1, r4
 384              		.loc 1 272 40 view .LVU103
 385 0026 C161     		str	r1, [r0, #28]
 273:Drivers/STM32C0xx_HAL_Driver/Src/stm32c0xx_hal_rcc_ex.c **** 
 274:Drivers/STM32C0xx_HAL_Driver/Src/stm32c0xx_hal_rcc_ex.c ****   /* Get the ADC clock source -----------------------------------------------*/
 275:Drivers/STM32C0xx_HAL_Driver/Src/stm32c0xx_hal_rcc_ex.c ****   PeriphClkInit->AdcClockSelection     = __HAL_RCC_GET_ADC_SOURCE();
 386              		.loc 1 275 3 is_stmt 1 view .LVU104
 387              		.loc 1 275 42 is_stmt 0 view .LVU105
 388 0028 5A6D     		ldr	r2, [r3, #84]
 389 002a 920F     		lsrs	r2, r2, #30
 390 002c 9207     		lsls	r2, r2, #30
 391              		.loc 1 275 40 view .LVU106
 392 002e 8261     		str	r2, [r0, #24]
 276:Drivers/STM32C0xx_HAL_Driver/Src/stm32c0xx_hal_rcc_ex.c **** 
ARM GAS  C:\Users\BHUPEN~1\AppData\Local\Temp\ccJ4iBJ9.s 			page 13


 277:Drivers/STM32C0xx_HAL_Driver/Src/stm32c0xx_hal_rcc_ex.c **** #if defined (USB_DRD_FS)
 278:Drivers/STM32C0xx_HAL_Driver/Src/stm32c0xx_hal_rcc_ex.c ****   /* Get the USB clock source -------------------------------------------------*/
 279:Drivers/STM32C0xx_HAL_Driver/Src/stm32c0xx_hal_rcc_ex.c ****   PeriphClkInit->UsbClockSelection     = __HAL_RCC_GET_USB_SOURCE();
 280:Drivers/STM32C0xx_HAL_Driver/Src/stm32c0xx_hal_rcc_ex.c **** #endif /* USB_DRD_FS */
 281:Drivers/STM32C0xx_HAL_Driver/Src/stm32c0xx_hal_rcc_ex.c **** 
 282:Drivers/STM32C0xx_HAL_Driver/Src/stm32c0xx_hal_rcc_ex.c **** #if defined (FDCAN1)
 283:Drivers/STM32C0xx_HAL_Driver/Src/stm32c0xx_hal_rcc_ex.c ****   /* Get the FDCAN1 clock source -------------------------------------------------*/
 284:Drivers/STM32C0xx_HAL_Driver/Src/stm32c0xx_hal_rcc_ex.c ****   PeriphClkInit->Fdcan1ClockSelection     = __HAL_RCC_GET_FDCAN1_SOURCE();
 393              		.loc 1 284 3 is_stmt 1 view .LVU107
 394              		.loc 1 284 45 is_stmt 0 view .LVU108
 395 0030 5A6D     		ldr	r2, [r3, #84]
 396 0032 2240     		ands	r2, r4
 397              		.loc 1 284 43 view .LVU109
 398 0034 4261     		str	r2, [r0, #20]
 285:Drivers/STM32C0xx_HAL_Driver/Src/stm32c0xx_hal_rcc_ex.c **** #endif /* FDCAN1 */
 286:Drivers/STM32C0xx_HAL_Driver/Src/stm32c0xx_hal_rcc_ex.c **** 
 287:Drivers/STM32C0xx_HAL_Driver/Src/stm32c0xx_hal_rcc_ex.c ****   /* Get the I2S1 clock source -----------------------------------------------*/
 288:Drivers/STM32C0xx_HAL_Driver/Src/stm32c0xx_hal_rcc_ex.c ****   PeriphClkInit->I2s1ClockSelection    = __HAL_RCC_GET_I2S1_SOURCE();
 399              		.loc 1 288 3 is_stmt 1 view .LVU110
 400              		.loc 1 288 42 is_stmt 0 view .LVU111
 401 0036 5A6D     		ldr	r2, [r3, #84]
 402 0038 C021     		movs	r1, #192
 403 003a 0902     		lsls	r1, r1, #8
 404 003c 0A40     		ands	r2, r1
 405              		.loc 1 288 40 view .LVU112
 406 003e 0261     		str	r2, [r0, #16]
 289:Drivers/STM32C0xx_HAL_Driver/Src/stm32c0xx_hal_rcc_ex.c **** 
 290:Drivers/STM32C0xx_HAL_Driver/Src/stm32c0xx_hal_rcc_ex.c ****   /* Get the HSI Kernel clock divider -----------------------------------------------*/
 291:Drivers/STM32C0xx_HAL_Driver/Src/stm32c0xx_hal_rcc_ex.c ****   PeriphClkInit->HSIKerClockDivider    = __HAL_RCC_GET_HSIKER_DIVIDER();
 407              		.loc 1 291 3 is_stmt 1 view .LVU113
 408              		.loc 1 291 42 is_stmt 0 view .LVU114
 409 0040 1A68     		ldr	r2, [r3]
 410 0042 E023     		movs	r3, #224
 411 0044 1340     		ands	r3, r2
 412              		.loc 1 291 40 view .LVU115
 413 0046 4360     		str	r3, [r0, #4]
 292:Drivers/STM32C0xx_HAL_Driver/Src/stm32c0xx_hal_rcc_ex.c **** }
 414              		.loc 1 292 1 view .LVU116
 415              		@ sp needed
 416 0048 10BD     		pop	{r4, pc}
 417              	.L25:
 418 004a C046     		.align	2
 419              	.L24:
 420 004c 00100240 		.word	1073876992
 421              		.cfi_endproc
 422              	.LFE231:
 424              		.global	__aeabi_uidiv
 425              		.section	.text.HAL_RCCEx_GetPeriphCLKFreq,"ax",%progbits
 426              		.align	1
 427              		.global	HAL_RCCEx_GetPeriphCLKFreq
 428              		.syntax unified
 429              		.code	16
 430              		.thumb_func
 431              		.fpu softvfp
 433              	HAL_RCCEx_GetPeriphCLKFreq:
 434              	.LVL22:
 435              	.LFB232:
ARM GAS  C:\Users\BHUPEN~1\AppData\Local\Temp\ccJ4iBJ9.s 			page 14


 293:Drivers/STM32C0xx_HAL_Driver/Src/stm32c0xx_hal_rcc_ex.c **** 
 294:Drivers/STM32C0xx_HAL_Driver/Src/stm32c0xx_hal_rcc_ex.c **** /**
 295:Drivers/STM32C0xx_HAL_Driver/Src/stm32c0xx_hal_rcc_ex.c ****   * @brief  Return the peripheral clock frequency for peripherals
 296:Drivers/STM32C0xx_HAL_Driver/Src/stm32c0xx_hal_rcc_ex.c ****   * @note   Return 0 if peripheral clock identifier not managed by this API
 297:Drivers/STM32C0xx_HAL_Driver/Src/stm32c0xx_hal_rcc_ex.c ****   * @param  PeriphClk  Peripheral clock identifier
 298:Drivers/STM32C0xx_HAL_Driver/Src/stm32c0xx_hal_rcc_ex.c ****   *         This parameter can be one of the following values:
 299:Drivers/STM32C0xx_HAL_Driver/Src/stm32c0xx_hal_rcc_ex.c ****   *            @arg @ref RCC_PERIPHCLK_RTC     RTC peripheral clock
 300:Drivers/STM32C0xx_HAL_Driver/Src/stm32c0xx_hal_rcc_ex.c ****   *            @arg @ref RCC_PERIPHCLK_ADC     ADC peripheral clock
 301:Drivers/STM32C0xx_HAL_Driver/Src/stm32c0xx_hal_rcc_ex.c ****   *            @arg @ref RCC_PERIPHCLK_I2C1    I2C1 peripheral clock
 302:Drivers/STM32C0xx_HAL_Driver/Src/stm32c0xx_hal_rcc_ex.c ****   *            @arg @ref RCC_PERIPHCLK_I2S1    I2S1 peripheral clock
 303:Drivers/STM32C0xx_HAL_Driver/Src/stm32c0xx_hal_rcc_ex.c ****   *            @arg @ref RCC_PERIPHCLK_USART1  USART1 peripheral clock
 304:Drivers/STM32C0xx_HAL_Driver/Src/stm32c0xx_hal_rcc_ex.c ****   *            @arg @ref RCC_PERIPHCLK_USB     USB peripheral clock (*)
 305:Drivers/STM32C0xx_HAL_Driver/Src/stm32c0xx_hal_rcc_ex.c ****   *            @arg @ref RCC_PERIPHCLK_FDCAN1  FDCAN1 peripheral clock (*)
 306:Drivers/STM32C0xx_HAL_Driver/Src/stm32c0xx_hal_rcc_ex.c ****   * @note (*) not available on all devices
 307:Drivers/STM32C0xx_HAL_Driver/Src/stm32c0xx_hal_rcc_ex.c ****   * @retval Frequency in Hz
 308:Drivers/STM32C0xx_HAL_Driver/Src/stm32c0xx_hal_rcc_ex.c ****   */
 309:Drivers/STM32C0xx_HAL_Driver/Src/stm32c0xx_hal_rcc_ex.c **** uint32_t HAL_RCCEx_GetPeriphCLKFreq(uint32_t PeriphClk)
 310:Drivers/STM32C0xx_HAL_Driver/Src/stm32c0xx_hal_rcc_ex.c **** {
 436              		.loc 1 310 1 is_stmt 1 view -0
 437              		.cfi_startproc
 438              		@ args = 0, pretend = 0, frame = 0
 439              		@ frame_needed = 0, uses_anonymous_args = 0
 440              		.loc 1 310 1 is_stmt 0 view .LVU118
 441 0000 10B5     		push	{r4, lr}
 442              	.LCFI3:
 443              		.cfi_def_cfa_offset 8
 444              		.cfi_offset 4, -8
 445              		.cfi_offset 14, -4
 311:Drivers/STM32C0xx_HAL_Driver/Src/stm32c0xx_hal_rcc_ex.c ****   uint32_t frequency = 0U;
 446              		.loc 1 311 3 is_stmt 1 view .LVU119
 447              	.LVL23:
 312:Drivers/STM32C0xx_HAL_Driver/Src/stm32c0xx_hal_rcc_ex.c ****   uint32_t srcclk;
 448              		.loc 1 312 3 view .LVU120
 313:Drivers/STM32C0xx_HAL_Driver/Src/stm32c0xx_hal_rcc_ex.c **** 
 314:Drivers/STM32C0xx_HAL_Driver/Src/stm32c0xx_hal_rcc_ex.c ****   /* Check the parameters */
 315:Drivers/STM32C0xx_HAL_Driver/Src/stm32c0xx_hal_rcc_ex.c ****   assert_param(IS_RCC_PERIPHCLOCK(PeriphClk));
 449              		.loc 1 315 3 view .LVU121
 316:Drivers/STM32C0xx_HAL_Driver/Src/stm32c0xx_hal_rcc_ex.c **** 
 317:Drivers/STM32C0xx_HAL_Driver/Src/stm32c0xx_hal_rcc_ex.c ****   if (PeriphClk == RCC_PERIPHCLK_RTC)
 450              		.loc 1 317 3 view .LVU122
 451              		.loc 1 317 6 is_stmt 0 view .LVU123
 452 0002 4028     		cmp	r0, #64
 453 0004 06D0     		beq	.L56
 318:Drivers/STM32C0xx_HAL_Driver/Src/stm32c0xx_hal_rcc_ex.c ****   {
 319:Drivers/STM32C0xx_HAL_Driver/Src/stm32c0xx_hal_rcc_ex.c ****     /* Get the current RTC source */
 320:Drivers/STM32C0xx_HAL_Driver/Src/stm32c0xx_hal_rcc_ex.c ****     srcclk = __HAL_RCC_GET_RTC_SOURCE();
 321:Drivers/STM32C0xx_HAL_Driver/Src/stm32c0xx_hal_rcc_ex.c **** 
 322:Drivers/STM32C0xx_HAL_Driver/Src/stm32c0xx_hal_rcc_ex.c ****     /* Check if LSE is ready and if RTC clock selection is LSE */
 323:Drivers/STM32C0xx_HAL_Driver/Src/stm32c0xx_hal_rcc_ex.c ****     if ((HAL_IS_BIT_SET(RCC->CSR1, RCC_CSR1_LSERDY)) && (srcclk == RCC_RTCCLKSOURCE_LSE))
 324:Drivers/STM32C0xx_HAL_Driver/Src/stm32c0xx_hal_rcc_ex.c ****     {
 325:Drivers/STM32C0xx_HAL_Driver/Src/stm32c0xx_hal_rcc_ex.c ****       frequency = LSE_VALUE;
 326:Drivers/STM32C0xx_HAL_Driver/Src/stm32c0xx_hal_rcc_ex.c ****     }
 327:Drivers/STM32C0xx_HAL_Driver/Src/stm32c0xx_hal_rcc_ex.c ****     /* Check if LSI is ready and if RTC clock selection is LSI */
 328:Drivers/STM32C0xx_HAL_Driver/Src/stm32c0xx_hal_rcc_ex.c ****     else if ((HAL_IS_BIT_SET(RCC->CSR2, RCC_CSR2_LSIRDY)) && (srcclk == RCC_RTCCLKSOURCE_LSI))
 329:Drivers/STM32C0xx_HAL_Driver/Src/stm32c0xx_hal_rcc_ex.c ****     {
 330:Drivers/STM32C0xx_HAL_Driver/Src/stm32c0xx_hal_rcc_ex.c ****       frequency = LSI_VALUE;
 331:Drivers/STM32C0xx_HAL_Driver/Src/stm32c0xx_hal_rcc_ex.c ****     }
ARM GAS  C:\Users\BHUPEN~1\AppData\Local\Temp\ccJ4iBJ9.s 			page 15


 332:Drivers/STM32C0xx_HAL_Driver/Src/stm32c0xx_hal_rcc_ex.c ****     /* Check if HSE is ready  and if RTC clock selection is HSI_DIV32*/
 333:Drivers/STM32C0xx_HAL_Driver/Src/stm32c0xx_hal_rcc_ex.c ****     else if ((HAL_IS_BIT_SET(RCC->CR, RCC_CR_HSERDY)) && (srcclk == RCC_RTCCLKSOURCE_HSE_DIV32))
 334:Drivers/STM32C0xx_HAL_Driver/Src/stm32c0xx_hal_rcc_ex.c ****     {
 335:Drivers/STM32C0xx_HAL_Driver/Src/stm32c0xx_hal_rcc_ex.c ****       frequency = HSE_VALUE / 32U;
 336:Drivers/STM32C0xx_HAL_Driver/Src/stm32c0xx_hal_rcc_ex.c ****     }
 337:Drivers/STM32C0xx_HAL_Driver/Src/stm32c0xx_hal_rcc_ex.c ****     /* Clock not enabled for RTC*/
 338:Drivers/STM32C0xx_HAL_Driver/Src/stm32c0xx_hal_rcc_ex.c ****     else
 339:Drivers/STM32C0xx_HAL_Driver/Src/stm32c0xx_hal_rcc_ex.c ****     {
 340:Drivers/STM32C0xx_HAL_Driver/Src/stm32c0xx_hal_rcc_ex.c ****       /* Nothing to do as frequency already initialized to 0U */
 341:Drivers/STM32C0xx_HAL_Driver/Src/stm32c0xx_hal_rcc_ex.c ****     }
 342:Drivers/STM32C0xx_HAL_Driver/Src/stm32c0xx_hal_rcc_ex.c ****   }
 343:Drivers/STM32C0xx_HAL_Driver/Src/stm32c0xx_hal_rcc_ex.c ****   else
 344:Drivers/STM32C0xx_HAL_Driver/Src/stm32c0xx_hal_rcc_ex.c ****   {
 345:Drivers/STM32C0xx_HAL_Driver/Src/stm32c0xx_hal_rcc_ex.c ****     /* Other external peripheral clock source than RTC */
 346:Drivers/STM32C0xx_HAL_Driver/Src/stm32c0xx_hal_rcc_ex.c **** 
 347:Drivers/STM32C0xx_HAL_Driver/Src/stm32c0xx_hal_rcc_ex.c ****     switch (PeriphClk)
 454              		.loc 1 347 5 is_stmt 1 view .LVU124
 455 0006 2028     		cmp	r0, #32
 456 0008 00D9     		bls	.LCB436
 457 000a EFE0     		b	.L50	@long jump
 458              	.LCB436:
 459 000c 8000     		lsls	r0, r0, #2
 460              	.LVL24:
 461              		.loc 1 347 5 is_stmt 0 view .LVU125
 462 000e 7C4B     		ldr	r3, .L69
 463 0010 1B58     		ldr	r3, [r3, r0]
 464 0012 9F46     		mov	pc, r3
 465              		.section	.rodata.HAL_RCCEx_GetPeriphCLKFreq,"a",%progbits
 466              		.align	2
 467              	.L32:
 468 0000 EC010000 		.word	.L50
 469 0004 60000000 		.word	.L36
 470 0008 FC000000 		.word	.L35
 471 000c EC010000 		.word	.L50
 472 0010 50010000 		.word	.L34
 473 0014 EC010000 		.word	.L50
 474 0018 EC010000 		.word	.L50
 475 001c EC010000 		.word	.L50
 476 0020 EC010000 		.word	.L50
 477 0024 EC010000 		.word	.L50
 478 0028 EC010000 		.word	.L50
 479 002c EC010000 		.word	.L50
 480 0030 EC010000 		.word	.L50
 481 0034 EC010000 		.word	.L50
 482 0038 EC010000 		.word	.L50
 483 003c EC010000 		.word	.L50
 484 0040 96010000 		.word	.L33
 485 0044 EC010000 		.word	.L50
 486 0048 EC010000 		.word	.L50
 487 004c EC010000 		.word	.L50
 488 0050 EC010000 		.word	.L50
 489 0054 EC010000 		.word	.L50
 490 0058 EC010000 		.word	.L50
 491 005c EC010000 		.word	.L50
 492 0060 EC010000 		.word	.L50
 493 0064 EC010000 		.word	.L50
 494 0068 EC010000 		.word	.L50
ARM GAS  C:\Users\BHUPEN~1\AppData\Local\Temp\ccJ4iBJ9.s 			page 16


 495 006c EC010000 		.word	.L50
 496 0070 EC010000 		.word	.L50
 497 0074 EC010000 		.word	.L50
 498 0078 EC010000 		.word	.L50
 499 007c EC010000 		.word	.L50
 500 0080 B8000000 		.word	.L31
 501              		.section	.text.HAL_RCCEx_GetPeriphCLKFreq
 502              	.LVL25:
 503              	.L56:
 320:Drivers/STM32C0xx_HAL_Driver/Src/stm32c0xx_hal_rcc_ex.c **** 
 504              		.loc 1 320 5 is_stmt 1 view .LVU126
 320:Drivers/STM32C0xx_HAL_Driver/Src/stm32c0xx_hal_rcc_ex.c **** 
 505              		.loc 1 320 14 is_stmt 0 view .LVU127
 506 0014 7B4A     		ldr	r2, .L69+4
 507 0016 D36D     		ldr	r3, [r2, #92]
 320:Drivers/STM32C0xx_HAL_Driver/Src/stm32c0xx_hal_rcc_ex.c **** 
 508              		.loc 1 320 12 view .LVU128
 509 0018 C021     		movs	r1, #192
 510 001a 8900     		lsls	r1, r1, #2
 511 001c 0B40     		ands	r3, r1
 512              	.LVL26:
 323:Drivers/STM32C0xx_HAL_Driver/Src/stm32c0xx_hal_rcc_ex.c ****     {
 513              		.loc 1 323 5 is_stmt 1 view .LVU129
 323:Drivers/STM32C0xx_HAL_Driver/Src/stm32c0xx_hal_rcc_ex.c ****     {
 514              		.loc 1 323 10 is_stmt 0 view .LVU130
 515 001e D26D     		ldr	r2, [r2, #92]
 323:Drivers/STM32C0xx_HAL_Driver/Src/stm32c0xx_hal_rcc_ex.c ****     {
 516              		.loc 1 323 8 view .LVU131
 517 0020 9207     		lsls	r2, r2, #30
 518 0022 04D5     		bpl	.L28
 323:Drivers/STM32C0xx_HAL_Driver/Src/stm32c0xx_hal_rcc_ex.c ****     {
 519              		.loc 1 323 54 discriminator 1 view .LVU132
 520 0024 8022     		movs	r2, #128
 521 0026 5200     		lsls	r2, r2, #1
 522 0028 9342     		cmp	r3, r2
 523 002a 00D1     		bne	.LCB466
 524 002c D6E0     		b	.L47	@long jump
 525              	.LCB466:
 526              	.L28:
 328:Drivers/STM32C0xx_HAL_Driver/Src/stm32c0xx_hal_rcc_ex.c ****     {
 527              		.loc 1 328 10 is_stmt 1 view .LVU133
 328:Drivers/STM32C0xx_HAL_Driver/Src/stm32c0xx_hal_rcc_ex.c ****     {
 528              		.loc 1 328 15 is_stmt 0 view .LVU134
 529 002e 754A     		ldr	r2, .L69+4
 530 0030 126E     		ldr	r2, [r2, #96]
 328:Drivers/STM32C0xx_HAL_Driver/Src/stm32c0xx_hal_rcc_ex.c ****     {
 531              		.loc 1 328 13 view .LVU135
 532 0032 9207     		lsls	r2, r2, #30
 533 0034 04D5     		bpl	.L30
 328:Drivers/STM32C0xx_HAL_Driver/Src/stm32c0xx_hal_rcc_ex.c ****     {
 534              		.loc 1 328 59 discriminator 1 view .LVU136
 535 0036 8022     		movs	r2, #128
 536 0038 9200     		lsls	r2, r2, #2
 537 003a 9342     		cmp	r3, r2
 538 003c 00D1     		bne	.LCB478
 539 003e D0E0     		b	.L48	@long jump
 540              	.LCB478:
ARM GAS  C:\Users\BHUPEN~1\AppData\Local\Temp\ccJ4iBJ9.s 			page 17


 541              	.L30:
 333:Drivers/STM32C0xx_HAL_Driver/Src/stm32c0xx_hal_rcc_ex.c ****     {
 542              		.loc 1 333 10 is_stmt 1 view .LVU137
 333:Drivers/STM32C0xx_HAL_Driver/Src/stm32c0xx_hal_rcc_ex.c ****     {
 543              		.loc 1 333 15 is_stmt 0 view .LVU138
 544 0040 704A     		ldr	r2, .L69+4
 545 0042 1168     		ldr	r1, [r2]
 546 0044 8022     		movs	r2, #128
 547 0046 9202     		lsls	r2, r2, #10
 548 0048 0800     		movs	r0, r1
 549              	.LVL27:
 333:Drivers/STM32C0xx_HAL_Driver/Src/stm32c0xx_hal_rcc_ex.c ****     {
 550              		.loc 1 333 15 view .LVU139
 551 004a 1040     		ands	r0, r2
 333:Drivers/STM32C0xx_HAL_Driver/Src/stm32c0xx_hal_rcc_ex.c ****     {
 552              		.loc 1 333 13 view .LVU140
 553 004c 1142     		tst	r1, r2
 554 004e 00D1     		bne	.LCB489
 555 0050 CDE0     		b	.L26	@long jump
 556              	.LCB489:
 333:Drivers/STM32C0xx_HAL_Driver/Src/stm32c0xx_hal_rcc_ex.c ****     {
 557              		.loc 1 333 55 discriminator 1 view .LVU141
 558 0052 C022     		movs	r2, #192
 559 0054 9200     		lsls	r2, r2, #2
 560 0056 9342     		cmp	r3, r2
 561 0058 00D1     		bne	.LCB493
 562 005a C5E0     		b	.L49	@long jump
 563              	.LCB493:
 311:Drivers/STM32C0xx_HAL_Driver/Src/stm32c0xx_hal_rcc_ex.c ****   uint32_t srcclk;
 564              		.loc 1 311 12 view .LVU142
 565 005c 0020     		movs	r0, #0
 566 005e C6E0     		b	.L26
 567              	.LVL28:
 568              	.L36:
 348:Drivers/STM32C0xx_HAL_Driver/Src/stm32c0xx_hal_rcc_ex.c ****     {
 349:Drivers/STM32C0xx_HAL_Driver/Src/stm32c0xx_hal_rcc_ex.c **** 
 350:Drivers/STM32C0xx_HAL_Driver/Src/stm32c0xx_hal_rcc_ex.c ****       case RCC_PERIPHCLK_USART1:
 351:Drivers/STM32C0xx_HAL_Driver/Src/stm32c0xx_hal_rcc_ex.c ****         /* Get the current USART1 source */
 352:Drivers/STM32C0xx_HAL_Driver/Src/stm32c0xx_hal_rcc_ex.c ****         srcclk = __HAL_RCC_GET_USART1_SOURCE();
 569              		.loc 1 352 9 is_stmt 1 view .LVU143
 570              		.loc 1 352 18 is_stmt 0 view .LVU144
 571 0060 684B     		ldr	r3, .L69+4
 572 0062 5B6D     		ldr	r3, [r3, #84]
 573              		.loc 1 352 16 view .LVU145
 574 0064 0322     		movs	r2, #3
 575 0066 1100     		movs	r1, r2
 576 0068 1940     		ands	r1, r3
 577              	.LVL29:
 353:Drivers/STM32C0xx_HAL_Driver/Src/stm32c0xx_hal_rcc_ex.c **** 
 354:Drivers/STM32C0xx_HAL_Driver/Src/stm32c0xx_hal_rcc_ex.c ****         if (srcclk == RCC_USART1CLKSOURCE_PCLK1)            /* PCLK1 */
 578              		.loc 1 354 9 is_stmt 1 view .LVU146
 579              		.loc 1 354 12 is_stmt 0 view .LVU147
 580 006a 1A42     		tst	r2, r3
 581 006c 14D0     		beq	.L57
 355:Drivers/STM32C0xx_HAL_Driver/Src/stm32c0xx_hal_rcc_ex.c ****         {
 356:Drivers/STM32C0xx_HAL_Driver/Src/stm32c0xx_hal_rcc_ex.c ****           frequency = HAL_RCC_GetPCLK1Freq();
 357:Drivers/STM32C0xx_HAL_Driver/Src/stm32c0xx_hal_rcc_ex.c ****         }
ARM GAS  C:\Users\BHUPEN~1\AppData\Local\Temp\ccJ4iBJ9.s 			page 18


 358:Drivers/STM32C0xx_HAL_Driver/Src/stm32c0xx_hal_rcc_ex.c ****         else if (srcclk == RCC_USART1CLKSOURCE_SYSCLK)     /* SYSCLK  */
 582              		.loc 1 358 14 is_stmt 1 view .LVU148
 583              		.loc 1 358 17 is_stmt 0 view .LVU149
 584 006e 0129     		cmp	r1, #1
 585 0070 15D0     		beq	.L58
 359:Drivers/STM32C0xx_HAL_Driver/Src/stm32c0xx_hal_rcc_ex.c ****         {
 360:Drivers/STM32C0xx_HAL_Driver/Src/stm32c0xx_hal_rcc_ex.c ****           frequency = HAL_RCC_GetSysClockFreq();
 361:Drivers/STM32C0xx_HAL_Driver/Src/stm32c0xx_hal_rcc_ex.c ****         }
 362:Drivers/STM32C0xx_HAL_Driver/Src/stm32c0xx_hal_rcc_ex.c ****         else if ((HAL_IS_BIT_SET(RCC->CR, RCC_CR_HSIRDY)) && (srcclk == RCC_USART1CLKSOURCE_HSIKER)
 586              		.loc 1 362 14 is_stmt 1 view .LVU150
 587              		.loc 1 362 19 is_stmt 0 view .LVU151
 588 0072 644B     		ldr	r3, .L69+4
 589 0074 1B68     		ldr	r3, [r3]
 590              		.loc 1 362 17 view .LVU152
 591 0076 5B05     		lsls	r3, r3, #21
 592 0078 01D5     		bpl	.L39
 593              		.loc 1 362 59 discriminator 1 view .LVU153
 594 007a 0229     		cmp	r1, #2
 595 007c 12D0     		beq	.L59
 596              	.L39:
 363:Drivers/STM32C0xx_HAL_Driver/Src/stm32c0xx_hal_rcc_ex.c ****         {
 364:Drivers/STM32C0xx_HAL_Driver/Src/stm32c0xx_hal_rcc_ex.c ****           frequency = (HSI_VALUE / ((__HAL_RCC_GET_HSIKER_DIVIDER() >> RCC_CR_HSIKERDIV_Pos) + 1U))
 365:Drivers/STM32C0xx_HAL_Driver/Src/stm32c0xx_hal_rcc_ex.c ****         }
 366:Drivers/STM32C0xx_HAL_Driver/Src/stm32c0xx_hal_rcc_ex.c ****         else if ((HAL_IS_BIT_SET(RCC->CSR1, RCC_CSR1_LSERDY)) && (srcclk == RCC_USART1CLKSOURCE_LSE
 597              		.loc 1 366 14 is_stmt 1 view .LVU154
 598              		.loc 1 366 19 is_stmt 0 view .LVU155
 599 007e 614B     		ldr	r3, .L69+4
 600 0080 DB6D     		ldr	r3, [r3, #92]
 601 0082 0222     		movs	r2, #2
 602 0084 1000     		movs	r0, r2
 603 0086 1840     		ands	r0, r3
 604              		.loc 1 366 17 view .LVU156
 605 0088 1A42     		tst	r2, r3
 606 008a 00D1     		bne	.LCB530
 607 008c AFE0     		b	.L26	@long jump
 608              	.LCB530:
 609              		.loc 1 366 63 discriminator 1 view .LVU157
 610 008e 0329     		cmp	r1, #3
 611 0090 00D1     		bne	.LCB532
 612 0092 ADE0     		b	.L51	@long jump
 613              	.LCB532:
 311:Drivers/STM32C0xx_HAL_Driver/Src/stm32c0xx_hal_rcc_ex.c ****   uint32_t srcclk;
 614              		.loc 1 311 12 view .LVU158
 615 0094 0020     		movs	r0, #0
 616 0096 AAE0     		b	.L26
 617              	.L57:
 356:Drivers/STM32C0xx_HAL_Driver/Src/stm32c0xx_hal_rcc_ex.c ****         }
 618              		.loc 1 356 11 is_stmt 1 view .LVU159
 356:Drivers/STM32C0xx_HAL_Driver/Src/stm32c0xx_hal_rcc_ex.c ****         }
 619              		.loc 1 356 23 is_stmt 0 view .LVU160
 620 0098 FFF7FEFF 		bl	HAL_RCC_GetPCLK1Freq
 621              	.LVL30:
 356:Drivers/STM32C0xx_HAL_Driver/Src/stm32c0xx_hal_rcc_ex.c ****         }
 622              		.loc 1 356 23 view .LVU161
 623 009c A7E0     		b	.L26
 624              	.LVL31:
 625              	.L58:
ARM GAS  C:\Users\BHUPEN~1\AppData\Local\Temp\ccJ4iBJ9.s 			page 19


 360:Drivers/STM32C0xx_HAL_Driver/Src/stm32c0xx_hal_rcc_ex.c ****         }
 626              		.loc 1 360 11 is_stmt 1 view .LVU162
 360:Drivers/STM32C0xx_HAL_Driver/Src/stm32c0xx_hal_rcc_ex.c ****         }
 627              		.loc 1 360 23 is_stmt 0 view .LVU163
 628 009e FFF7FEFF 		bl	HAL_RCC_GetSysClockFreq
 629              	.LVL32:
 360:Drivers/STM32C0xx_HAL_Driver/Src/stm32c0xx_hal_rcc_ex.c ****         }
 630              		.loc 1 360 23 view .LVU164
 631 00a2 A4E0     		b	.L26
 632              	.LVL33:
 633              	.L59:
 364:Drivers/STM32C0xx_HAL_Driver/Src/stm32c0xx_hal_rcc_ex.c ****         }
 634              		.loc 1 364 11 is_stmt 1 view .LVU165
 364:Drivers/STM32C0xx_HAL_Driver/Src/stm32c0xx_hal_rcc_ex.c ****         }
 635              		.loc 1 364 38 is_stmt 0 view .LVU166
 636 00a4 574B     		ldr	r3, .L69+4
 637 00a6 1B68     		ldr	r3, [r3]
 364:Drivers/STM32C0xx_HAL_Driver/Src/stm32c0xx_hal_rcc_ex.c ****         }
 638              		.loc 1 364 69 view .LVU167
 639 00a8 5B09     		lsrs	r3, r3, #5
 640 00aa 0531     		adds	r1, r1, #5
 641              	.LVL34:
 364:Drivers/STM32C0xx_HAL_Driver/Src/stm32c0xx_hal_rcc_ex.c ****         }
 642              		.loc 1 364 69 view .LVU168
 643 00ac 1940     		ands	r1, r3
 644              	.LVL35:
 364:Drivers/STM32C0xx_HAL_Driver/Src/stm32c0xx_hal_rcc_ex.c ****         }
 645              		.loc 1 364 94 view .LVU169
 646 00ae 0131     		adds	r1, r1, #1
 364:Drivers/STM32C0xx_HAL_Driver/Src/stm32c0xx_hal_rcc_ex.c ****         }
 647              		.loc 1 364 21 view .LVU170
 648 00b0 5548     		ldr	r0, .L69+8
 649 00b2 FFF7FEFF 		bl	__aeabi_uidiv
 650              	.LVL36:
 364:Drivers/STM32C0xx_HAL_Driver/Src/stm32c0xx_hal_rcc_ex.c ****         }
 651              		.loc 1 364 21 view .LVU171
 652 00b6 9AE0     		b	.L26
 653              	.LVL37:
 654              	.L31:
 367:Drivers/STM32C0xx_HAL_Driver/Src/stm32c0xx_hal_rcc_ex.c ****         {
 368:Drivers/STM32C0xx_HAL_Driver/Src/stm32c0xx_hal_rcc_ex.c ****           frequency = LSE_VALUE;
 369:Drivers/STM32C0xx_HAL_Driver/Src/stm32c0xx_hal_rcc_ex.c ****         }
 370:Drivers/STM32C0xx_HAL_Driver/Src/stm32c0xx_hal_rcc_ex.c ****         /* Clock not enabled for USART1 */
 371:Drivers/STM32C0xx_HAL_Driver/Src/stm32c0xx_hal_rcc_ex.c ****         else
 372:Drivers/STM32C0xx_HAL_Driver/Src/stm32c0xx_hal_rcc_ex.c ****         {
 373:Drivers/STM32C0xx_HAL_Driver/Src/stm32c0xx_hal_rcc_ex.c ****           /* Nothing to do as frequency already initialized to 0U */
 374:Drivers/STM32C0xx_HAL_Driver/Src/stm32c0xx_hal_rcc_ex.c ****         }
 375:Drivers/STM32C0xx_HAL_Driver/Src/stm32c0xx_hal_rcc_ex.c ****         break;
 376:Drivers/STM32C0xx_HAL_Driver/Src/stm32c0xx_hal_rcc_ex.c **** 
 377:Drivers/STM32C0xx_HAL_Driver/Src/stm32c0xx_hal_rcc_ex.c ****       case RCC_PERIPHCLK_ADC:
 378:Drivers/STM32C0xx_HAL_Driver/Src/stm32c0xx_hal_rcc_ex.c **** 
 379:Drivers/STM32C0xx_HAL_Driver/Src/stm32c0xx_hal_rcc_ex.c ****         srcclk = __HAL_RCC_GET_ADC_SOURCE();
 655              		.loc 1 379 9 is_stmt 1 view .LVU172
 656              		.loc 1 379 18 is_stmt 0 view .LVU173
 657 00b8 524B     		ldr	r3, .L69+4
 658 00ba 5B6D     		ldr	r3, [r3, #84]
 659              		.loc 1 379 16 view .LVU174
ARM GAS  C:\Users\BHUPEN~1\AppData\Local\Temp\ccJ4iBJ9.s 			page 20


 660 00bc 9B0F     		lsrs	r3, r3, #30
 661 00be 9907     		lsls	r1, r3, #30
 662              	.LVL38:
 380:Drivers/STM32C0xx_HAL_Driver/Src/stm32c0xx_hal_rcc_ex.c **** 
 381:Drivers/STM32C0xx_HAL_Driver/Src/stm32c0xx_hal_rcc_ex.c ****         if (srcclk == RCC_ADCCLKSOURCE_SYSCLK)
 663              		.loc 1 381 9 is_stmt 1 view .LVU175
 664              		.loc 1 381 12 is_stmt 0 view .LVU176
 665 00c0 002B     		cmp	r3, #0
 666 00c2 0ED0     		beq	.L60
 382:Drivers/STM32C0xx_HAL_Driver/Src/stm32c0xx_hal_rcc_ex.c ****         {
 383:Drivers/STM32C0xx_HAL_Driver/Src/stm32c0xx_hal_rcc_ex.c ****           frequency = HAL_RCC_GetSysClockFreq();
 384:Drivers/STM32C0xx_HAL_Driver/Src/stm32c0xx_hal_rcc_ex.c ****         }
 385:Drivers/STM32C0xx_HAL_Driver/Src/stm32c0xx_hal_rcc_ex.c ****         else if ((HAL_IS_BIT_SET(RCC->CR, RCC_CR_HSIRDY)) && (srcclk == RCC_ADCCLKSOURCE_HSIKER))
 667              		.loc 1 385 14 is_stmt 1 view .LVU177
 668              		.loc 1 385 19 is_stmt 0 view .LVU178
 669 00c4 4F4B     		ldr	r3, .L69+4
 670 00c6 1A68     		ldr	r2, [r3]
 671 00c8 8023     		movs	r3, #128
 672 00ca DB00     		lsls	r3, r3, #3
 673 00cc 1000     		movs	r0, r2
 674 00ce 1840     		ands	r0, r3
 675              		.loc 1 385 17 view .LVU179
 676 00d0 1A42     		tst	r2, r3
 677 00d2 00D1     		bne	.LCB594
 678 00d4 8BE0     		b	.L26	@long jump
 679              	.LCB594:
 680              		.loc 1 385 59 discriminator 1 view .LVU180
 681 00d6 8023     		movs	r3, #128
 682 00d8 1B06     		lsls	r3, r3, #24
 683 00da 9942     		cmp	r1, r3
 684 00dc 04D0     		beq	.L61
 311:Drivers/STM32C0xx_HAL_Driver/Src/stm32c0xx_hal_rcc_ex.c ****   uint32_t srcclk;
 685              		.loc 1 311 12 view .LVU181
 686 00de 0020     		movs	r0, #0
 687 00e0 85E0     		b	.L26
 688              	.L60:
 383:Drivers/STM32C0xx_HAL_Driver/Src/stm32c0xx_hal_rcc_ex.c ****         }
 689              		.loc 1 383 11 is_stmt 1 view .LVU182
 383:Drivers/STM32C0xx_HAL_Driver/Src/stm32c0xx_hal_rcc_ex.c ****         }
 690              		.loc 1 383 23 is_stmt 0 view .LVU183
 691 00e2 FFF7FEFF 		bl	HAL_RCC_GetSysClockFreq
 692              	.LVL39:
 383:Drivers/STM32C0xx_HAL_Driver/Src/stm32c0xx_hal_rcc_ex.c ****         }
 693              		.loc 1 383 23 view .LVU184
 694 00e6 82E0     		b	.L26
 695              	.LVL40:
 696              	.L61:
 386:Drivers/STM32C0xx_HAL_Driver/Src/stm32c0xx_hal_rcc_ex.c ****         {
 387:Drivers/STM32C0xx_HAL_Driver/Src/stm32c0xx_hal_rcc_ex.c ****           frequency = (HSI_VALUE / ((__HAL_RCC_GET_HSIKER_DIVIDER() >> RCC_CR_HSIKERDIV_Pos) + 1U))
 697              		.loc 1 387 11 is_stmt 1 view .LVU185
 698              		.loc 1 387 38 is_stmt 0 view .LVU186
 699 00e8 464B     		ldr	r3, .L69+4
 700 00ea 1B68     		ldr	r3, [r3]
 701              		.loc 1 387 69 view .LVU187
 702 00ec 5B09     		lsrs	r3, r3, #5
 703 00ee 0721     		movs	r1, #7
 704              	.LVL41:
ARM GAS  C:\Users\BHUPEN~1\AppData\Local\Temp\ccJ4iBJ9.s 			page 21


 705              		.loc 1 387 69 view .LVU188
 706 00f0 1940     		ands	r1, r3
 707              		.loc 1 387 94 view .LVU189
 708 00f2 0131     		adds	r1, r1, #1
 709              		.loc 1 387 21 view .LVU190
 710 00f4 4448     		ldr	r0, .L69+8
 711 00f6 FFF7FEFF 		bl	__aeabi_uidiv
 712              	.LVL42:
 713              		.loc 1 387 21 view .LVU191
 714 00fa 78E0     		b	.L26
 715              	.LVL43:
 716              	.L35:
 388:Drivers/STM32C0xx_HAL_Driver/Src/stm32c0xx_hal_rcc_ex.c ****         }
 389:Drivers/STM32C0xx_HAL_Driver/Src/stm32c0xx_hal_rcc_ex.c ****         /* Clock not enabled for ADC */
 390:Drivers/STM32C0xx_HAL_Driver/Src/stm32c0xx_hal_rcc_ex.c ****         else
 391:Drivers/STM32C0xx_HAL_Driver/Src/stm32c0xx_hal_rcc_ex.c ****         {
 392:Drivers/STM32C0xx_HAL_Driver/Src/stm32c0xx_hal_rcc_ex.c ****           /* Nothing to do as frequency already initialized to 0U */
 393:Drivers/STM32C0xx_HAL_Driver/Src/stm32c0xx_hal_rcc_ex.c ****         }
 394:Drivers/STM32C0xx_HAL_Driver/Src/stm32c0xx_hal_rcc_ex.c ****         break;
 395:Drivers/STM32C0xx_HAL_Driver/Src/stm32c0xx_hal_rcc_ex.c **** 
 396:Drivers/STM32C0xx_HAL_Driver/Src/stm32c0xx_hal_rcc_ex.c ****       case RCC_PERIPHCLK_I2C1:
 397:Drivers/STM32C0xx_HAL_Driver/Src/stm32c0xx_hal_rcc_ex.c ****         /* Get the current I2C1 source */
 398:Drivers/STM32C0xx_HAL_Driver/Src/stm32c0xx_hal_rcc_ex.c ****         srcclk = __HAL_RCC_GET_I2C1_SOURCE();
 717              		.loc 1 398 9 is_stmt 1 view .LVU192
 718              		.loc 1 398 18 is_stmt 0 view .LVU193
 719 00fc 414B     		ldr	r3, .L69+4
 720 00fe 5A6D     		ldr	r2, [r3, #84]
 721              		.loc 1 398 16 view .LVU194
 722 0100 C023     		movs	r3, #192
 723 0102 9B01     		lsls	r3, r3, #6
 724 0104 1100     		movs	r1, r2
 725 0106 1940     		ands	r1, r3
 726              	.LVL44:
 399:Drivers/STM32C0xx_HAL_Driver/Src/stm32c0xx_hal_rcc_ex.c **** 
 400:Drivers/STM32C0xx_HAL_Driver/Src/stm32c0xx_hal_rcc_ex.c ****         if (srcclk == RCC_I2C1CLKSOURCE_PCLK1)
 727              		.loc 1 400 9 is_stmt 1 view .LVU195
 728              		.loc 1 400 12 is_stmt 0 view .LVU196
 729 0108 1A42     		tst	r2, r3
 730 010a 11D0     		beq	.L62
 401:Drivers/STM32C0xx_HAL_Driver/Src/stm32c0xx_hal_rcc_ex.c ****         {
 402:Drivers/STM32C0xx_HAL_Driver/Src/stm32c0xx_hal_rcc_ex.c ****           frequency = HAL_RCC_GetPCLK1Freq();
 403:Drivers/STM32C0xx_HAL_Driver/Src/stm32c0xx_hal_rcc_ex.c ****         }
 404:Drivers/STM32C0xx_HAL_Driver/Src/stm32c0xx_hal_rcc_ex.c ****         else if (srcclk == RCC_I2C1CLKSOURCE_SYSCLK)
 731              		.loc 1 404 14 is_stmt 1 view .LVU197
 732              		.loc 1 404 17 is_stmt 0 view .LVU198
 733 010c 8023     		movs	r3, #128
 734 010e 5B01     		lsls	r3, r3, #5
 735 0110 9942     		cmp	r1, r3
 736 0112 10D0     		beq	.L63
 405:Drivers/STM32C0xx_HAL_Driver/Src/stm32c0xx_hal_rcc_ex.c ****         {
 406:Drivers/STM32C0xx_HAL_Driver/Src/stm32c0xx_hal_rcc_ex.c ****           frequency = HAL_RCC_GetSysClockFreq();
 407:Drivers/STM32C0xx_HAL_Driver/Src/stm32c0xx_hal_rcc_ex.c ****         }
 408:Drivers/STM32C0xx_HAL_Driver/Src/stm32c0xx_hal_rcc_ex.c ****         else if ((HAL_IS_BIT_SET(RCC->CR, RCC_CR_HSIRDY)) && (srcclk == RCC_I2C1CLKSOURCE_HSIKER))
 737              		.loc 1 408 14 is_stmt 1 view .LVU199
 738              		.loc 1 408 19 is_stmt 0 view .LVU200
 739 0114 3B4B     		ldr	r3, .L69+4
 740 0116 1A68     		ldr	r2, [r3]
ARM GAS  C:\Users\BHUPEN~1\AppData\Local\Temp\ccJ4iBJ9.s 			page 22


 741 0118 8023     		movs	r3, #128
 742 011a DB00     		lsls	r3, r3, #3
 743 011c 1000     		movs	r0, r2
 744 011e 1840     		ands	r0, r3
 745              		.loc 1 408 17 view .LVU201
 746 0120 1A42     		tst	r2, r3
 747 0122 64D0     		beq	.L26
 748              		.loc 1 408 59 discriminator 1 view .LVU202
 749 0124 8023     		movs	r3, #128
 750 0126 9B01     		lsls	r3, r3, #6
 751 0128 9942     		cmp	r1, r3
 752 012a 07D0     		beq	.L64
 311:Drivers/STM32C0xx_HAL_Driver/Src/stm32c0xx_hal_rcc_ex.c ****   uint32_t srcclk;
 753              		.loc 1 311 12 view .LVU203
 754 012c 0020     		movs	r0, #0
 755 012e 5EE0     		b	.L26
 756              	.L62:
 402:Drivers/STM32C0xx_HAL_Driver/Src/stm32c0xx_hal_rcc_ex.c ****         }
 757              		.loc 1 402 11 is_stmt 1 view .LVU204
 402:Drivers/STM32C0xx_HAL_Driver/Src/stm32c0xx_hal_rcc_ex.c ****         }
 758              		.loc 1 402 23 is_stmt 0 view .LVU205
 759 0130 FFF7FEFF 		bl	HAL_RCC_GetPCLK1Freq
 760              	.LVL45:
 402:Drivers/STM32C0xx_HAL_Driver/Src/stm32c0xx_hal_rcc_ex.c ****         }
 761              		.loc 1 402 23 view .LVU206
 762 0134 5BE0     		b	.L26
 763              	.LVL46:
 764              	.L63:
 406:Drivers/STM32C0xx_HAL_Driver/Src/stm32c0xx_hal_rcc_ex.c ****         }
 765              		.loc 1 406 11 is_stmt 1 view .LVU207
 406:Drivers/STM32C0xx_HAL_Driver/Src/stm32c0xx_hal_rcc_ex.c ****         }
 766              		.loc 1 406 23 is_stmt 0 view .LVU208
 767 0136 FFF7FEFF 		bl	HAL_RCC_GetSysClockFreq
 768              	.LVL47:
 406:Drivers/STM32C0xx_HAL_Driver/Src/stm32c0xx_hal_rcc_ex.c ****         }
 769              		.loc 1 406 23 view .LVU209
 770 013a 58E0     		b	.L26
 771              	.LVL48:
 772              	.L64:
 409:Drivers/STM32C0xx_HAL_Driver/Src/stm32c0xx_hal_rcc_ex.c ****         {
 410:Drivers/STM32C0xx_HAL_Driver/Src/stm32c0xx_hal_rcc_ex.c ****           frequency = (HSI_VALUE / ((__HAL_RCC_GET_HSIKER_DIVIDER() >> RCC_CR_HSIKERDIV_Pos) + 1U))
 773              		.loc 1 410 11 is_stmt 1 view .LVU210
 774              		.loc 1 410 38 is_stmt 0 view .LVU211
 775 013c 314B     		ldr	r3, .L69+4
 776 013e 1B68     		ldr	r3, [r3]
 777              		.loc 1 410 69 view .LVU212
 778 0140 5B09     		lsrs	r3, r3, #5
 779 0142 0721     		movs	r1, #7
 780              	.LVL49:
 781              		.loc 1 410 69 view .LVU213
 782 0144 1940     		ands	r1, r3
 783              		.loc 1 410 94 view .LVU214
 784 0146 0131     		adds	r1, r1, #1
 785              		.loc 1 410 21 view .LVU215
 786 0148 2F48     		ldr	r0, .L69+8
 787 014a FFF7FEFF 		bl	__aeabi_uidiv
 788              	.LVL50:
ARM GAS  C:\Users\BHUPEN~1\AppData\Local\Temp\ccJ4iBJ9.s 			page 23


 789              		.loc 1 410 21 view .LVU216
 790 014e 4EE0     		b	.L26
 791              	.LVL51:
 792              	.L34:
 411:Drivers/STM32C0xx_HAL_Driver/Src/stm32c0xx_hal_rcc_ex.c ****         }
 412:Drivers/STM32C0xx_HAL_Driver/Src/stm32c0xx_hal_rcc_ex.c ****         /* Clock not enabled for I2C1 */
 413:Drivers/STM32C0xx_HAL_Driver/Src/stm32c0xx_hal_rcc_ex.c ****         else
 414:Drivers/STM32C0xx_HAL_Driver/Src/stm32c0xx_hal_rcc_ex.c ****         {
 415:Drivers/STM32C0xx_HAL_Driver/Src/stm32c0xx_hal_rcc_ex.c ****           /* Nothing to do as frequency already initialized to 0U */
 416:Drivers/STM32C0xx_HAL_Driver/Src/stm32c0xx_hal_rcc_ex.c ****         }
 417:Drivers/STM32C0xx_HAL_Driver/Src/stm32c0xx_hal_rcc_ex.c ****         break;
 418:Drivers/STM32C0xx_HAL_Driver/Src/stm32c0xx_hal_rcc_ex.c **** 
 419:Drivers/STM32C0xx_HAL_Driver/Src/stm32c0xx_hal_rcc_ex.c ****       case RCC_PERIPHCLK_I2S1:
 420:Drivers/STM32C0xx_HAL_Driver/Src/stm32c0xx_hal_rcc_ex.c ****         /* Get the current I2S1 source */
 421:Drivers/STM32C0xx_HAL_Driver/Src/stm32c0xx_hal_rcc_ex.c ****         srcclk = __HAL_RCC_GET_I2S1_SOURCE();
 793              		.loc 1 421 9 is_stmt 1 view .LVU217
 794              		.loc 1 421 18 is_stmt 0 view .LVU218
 795 0150 2C4B     		ldr	r3, .L69+4
 796 0152 5A6D     		ldr	r2, [r3, #84]
 797              		.loc 1 421 16 view .LVU219
 798 0154 C023     		movs	r3, #192
 799 0156 1B02     		lsls	r3, r3, #8
 800 0158 1100     		movs	r1, r2
 801 015a 1940     		ands	r1, r3
 802              	.LVL52:
 422:Drivers/STM32C0xx_HAL_Driver/Src/stm32c0xx_hal_rcc_ex.c **** 
 423:Drivers/STM32C0xx_HAL_Driver/Src/stm32c0xx_hal_rcc_ex.c ****         if (srcclk == RCC_I2S1CLKSOURCE_SYSCLK)
 803              		.loc 1 423 9 is_stmt 1 view .LVU220
 804              		.loc 1 423 12 is_stmt 0 view .LVU221
 805 015c 1A42     		tst	r2, r3
 806 015e 0DD0     		beq	.L65
 424:Drivers/STM32C0xx_HAL_Driver/Src/stm32c0xx_hal_rcc_ex.c ****         {
 425:Drivers/STM32C0xx_HAL_Driver/Src/stm32c0xx_hal_rcc_ex.c ****           frequency = HAL_RCC_GetSysClockFreq();
 426:Drivers/STM32C0xx_HAL_Driver/Src/stm32c0xx_hal_rcc_ex.c ****         }
 427:Drivers/STM32C0xx_HAL_Driver/Src/stm32c0xx_hal_rcc_ex.c ****         else if ((HAL_IS_BIT_SET(RCC->CR, RCC_CR_HSIRDY)) && (srcclk == RCC_I2S1CLKSOURCE_HSIKER))
 807              		.loc 1 427 14 is_stmt 1 view .LVU222
 808              		.loc 1 427 19 is_stmt 0 view .LVU223
 809 0160 284B     		ldr	r3, .L69+4
 810 0162 1B68     		ldr	r3, [r3]
 811              		.loc 1 427 17 view .LVU224
 812 0164 5B05     		lsls	r3, r3, #21
 813 0166 03D5     		bpl	.L44
 814              		.loc 1 427 59 discriminator 1 view .LVU225
 815 0168 8023     		movs	r3, #128
 816 016a 1B02     		lsls	r3, r3, #8
 817 016c 9942     		cmp	r1, r3
 818 016e 08D0     		beq	.L66
 819              	.L44:
 428:Drivers/STM32C0xx_HAL_Driver/Src/stm32c0xx_hal_rcc_ex.c ****         {
 429:Drivers/STM32C0xx_HAL_Driver/Src/stm32c0xx_hal_rcc_ex.c ****           frequency = (HSI_VALUE / ((__HAL_RCC_GET_HSIKER_DIVIDER() >> RCC_CR_HSIKERDIV_Pos) + 1U))
 430:Drivers/STM32C0xx_HAL_Driver/Src/stm32c0xx_hal_rcc_ex.c ****         }
 431:Drivers/STM32C0xx_HAL_Driver/Src/stm32c0xx_hal_rcc_ex.c ****         else if (srcclk == RCC_I2S1CLKSOURCE_EXT)
 820              		.loc 1 431 14 is_stmt 1 view .LVU226
 821              		.loc 1 431 17 is_stmt 0 view .LVU227
 822 0170 C023     		movs	r3, #192
 823 0172 1B02     		lsls	r3, r3, #8
 824 0174 9942     		cmp	r1, r3
ARM GAS  C:\Users\BHUPEN~1\AppData\Local\Temp\ccJ4iBJ9.s 			page 24


 825 0176 3ED0     		beq	.L54
 311:Drivers/STM32C0xx_HAL_Driver/Src/stm32c0xx_hal_rcc_ex.c ****   uint32_t srcclk;
 826              		.loc 1 311 12 view .LVU228
 827 0178 0020     		movs	r0, #0
 828 017a 38E0     		b	.L26
 829              	.L65:
 425:Drivers/STM32C0xx_HAL_Driver/Src/stm32c0xx_hal_rcc_ex.c ****         }
 830              		.loc 1 425 11 is_stmt 1 view .LVU229
 425:Drivers/STM32C0xx_HAL_Driver/Src/stm32c0xx_hal_rcc_ex.c ****         }
 831              		.loc 1 425 23 is_stmt 0 view .LVU230
 832 017c FFF7FEFF 		bl	HAL_RCC_GetSysClockFreq
 833              	.LVL53:
 425:Drivers/STM32C0xx_HAL_Driver/Src/stm32c0xx_hal_rcc_ex.c ****         }
 834              		.loc 1 425 23 view .LVU231
 835 0180 35E0     		b	.L26
 836              	.LVL54:
 837              	.L66:
 429:Drivers/STM32C0xx_HAL_Driver/Src/stm32c0xx_hal_rcc_ex.c ****         }
 838              		.loc 1 429 11 is_stmt 1 view .LVU232
 429:Drivers/STM32C0xx_HAL_Driver/Src/stm32c0xx_hal_rcc_ex.c ****         }
 839              		.loc 1 429 38 is_stmt 0 view .LVU233
 840 0182 204B     		ldr	r3, .L69+4
 841 0184 1B68     		ldr	r3, [r3]
 429:Drivers/STM32C0xx_HAL_Driver/Src/stm32c0xx_hal_rcc_ex.c ****         }
 842              		.loc 1 429 69 view .LVU234
 843 0186 5B09     		lsrs	r3, r3, #5
 844 0188 0721     		movs	r1, #7
 845              	.LVL55:
 429:Drivers/STM32C0xx_HAL_Driver/Src/stm32c0xx_hal_rcc_ex.c ****         }
 846              		.loc 1 429 69 view .LVU235
 847 018a 1940     		ands	r1, r3
 429:Drivers/STM32C0xx_HAL_Driver/Src/stm32c0xx_hal_rcc_ex.c ****         }
 848              		.loc 1 429 94 view .LVU236
 849 018c 0131     		adds	r1, r1, #1
 429:Drivers/STM32C0xx_HAL_Driver/Src/stm32c0xx_hal_rcc_ex.c ****         }
 850              		.loc 1 429 21 view .LVU237
 851 018e 1E48     		ldr	r0, .L69+8
 852 0190 FFF7FEFF 		bl	__aeabi_uidiv
 853              	.LVL56:
 429:Drivers/STM32C0xx_HAL_Driver/Src/stm32c0xx_hal_rcc_ex.c ****         }
 854              		.loc 1 429 21 view .LVU238
 855 0194 2BE0     		b	.L26
 856              	.LVL57:
 857              	.L33:
 432:Drivers/STM32C0xx_HAL_Driver/Src/stm32c0xx_hal_rcc_ex.c ****         {
 433:Drivers/STM32C0xx_HAL_Driver/Src/stm32c0xx_hal_rcc_ex.c ****           /* External clock used.*/
 434:Drivers/STM32C0xx_HAL_Driver/Src/stm32c0xx_hal_rcc_ex.c ****           frequency = EXTERNAL_I2S1_CLOCK_VALUE;
 435:Drivers/STM32C0xx_HAL_Driver/Src/stm32c0xx_hal_rcc_ex.c ****         }
 436:Drivers/STM32C0xx_HAL_Driver/Src/stm32c0xx_hal_rcc_ex.c ****         /* Clock not enabled for I2S1 */
 437:Drivers/STM32C0xx_HAL_Driver/Src/stm32c0xx_hal_rcc_ex.c ****         else
 438:Drivers/STM32C0xx_HAL_Driver/Src/stm32c0xx_hal_rcc_ex.c ****         {
 439:Drivers/STM32C0xx_HAL_Driver/Src/stm32c0xx_hal_rcc_ex.c ****           /* Nothing to do as frequency already initialized to 0U */
 440:Drivers/STM32C0xx_HAL_Driver/Src/stm32c0xx_hal_rcc_ex.c ****         }
 441:Drivers/STM32C0xx_HAL_Driver/Src/stm32c0xx_hal_rcc_ex.c ****         break;
 442:Drivers/STM32C0xx_HAL_Driver/Src/stm32c0xx_hal_rcc_ex.c **** #if defined(FDCAN1)
 443:Drivers/STM32C0xx_HAL_Driver/Src/stm32c0xx_hal_rcc_ex.c ****       case RCC_PERIPHCLK_FDCAN1:
 444:Drivers/STM32C0xx_HAL_Driver/Src/stm32c0xx_hal_rcc_ex.c ****         /* Get the current FDCAN1 source */
ARM GAS  C:\Users\BHUPEN~1\AppData\Local\Temp\ccJ4iBJ9.s 			page 25


 445:Drivers/STM32C0xx_HAL_Driver/Src/stm32c0xx_hal_rcc_ex.c ****         srcclk = __HAL_RCC_GET_FDCAN1_SOURCE();
 858              		.loc 1 445 9 is_stmt 1 view .LVU239
 859              		.loc 1 445 18 is_stmt 0 view .LVU240
 860 0196 1B4B     		ldr	r3, .L69+4
 861 0198 5A6D     		ldr	r2, [r3, #84]
 862              		.loc 1 445 16 view .LVU241
 863 019a C023     		movs	r3, #192
 864 019c 9B00     		lsls	r3, r3, #2
 865 019e 1100     		movs	r1, r2
 866 01a0 1940     		ands	r1, r3
 867              	.LVL58:
 446:Drivers/STM32C0xx_HAL_Driver/Src/stm32c0xx_hal_rcc_ex.c **** 
 447:Drivers/STM32C0xx_HAL_Driver/Src/stm32c0xx_hal_rcc_ex.c ****         if (srcclk == RCC_FDCAN1CLKSOURCE_PCLK1)
 868              		.loc 1 447 9 is_stmt 1 view .LVU242
 869              		.loc 1 447 12 is_stmt 0 view .LVU243
 870 01a2 1A42     		tst	r2, r3
 871 01a4 0DD0     		beq	.L67
 448:Drivers/STM32C0xx_HAL_Driver/Src/stm32c0xx_hal_rcc_ex.c ****         {
 449:Drivers/STM32C0xx_HAL_Driver/Src/stm32c0xx_hal_rcc_ex.c ****           frequency = HAL_RCC_GetPCLK1Freq();
 450:Drivers/STM32C0xx_HAL_Driver/Src/stm32c0xx_hal_rcc_ex.c ****         }
 451:Drivers/STM32C0xx_HAL_Driver/Src/stm32c0xx_hal_rcc_ex.c ****         else if ((HAL_IS_BIT_SET(RCC->CR, RCC_CR_HSIRDY)) && (srcclk == RCC_FDCAN1CLKSOURCE_HSIKER)
 872              		.loc 1 451 14 is_stmt 1 view .LVU244
 873              		.loc 1 451 19 is_stmt 0 view .LVU245
 874 01a6 174B     		ldr	r3, .L69+4
 875 01a8 1B68     		ldr	r3, [r3]
 876              		.loc 1 451 17 view .LVU246
 877 01aa 5B05     		lsls	r3, r3, #21
 878 01ac 03D5     		bpl	.L46
 879              		.loc 1 451 59 discriminator 1 view .LVU247
 880 01ae 8023     		movs	r3, #128
 881 01b0 5B00     		lsls	r3, r3, #1
 882 01b2 9942     		cmp	r1, r3
 883 01b4 08D0     		beq	.L68
 884              	.L46:
 452:Drivers/STM32C0xx_HAL_Driver/Src/stm32c0xx_hal_rcc_ex.c ****         {
 453:Drivers/STM32C0xx_HAL_Driver/Src/stm32c0xx_hal_rcc_ex.c ****           frequency = (HSI_VALUE / ((__HAL_RCC_GET_HSIKER_DIVIDER() >> RCC_CR_HSIKERDIV_Pos) + 1U))
 454:Drivers/STM32C0xx_HAL_Driver/Src/stm32c0xx_hal_rcc_ex.c ****         }
 455:Drivers/STM32C0xx_HAL_Driver/Src/stm32c0xx_hal_rcc_ex.c ****         else if (srcclk == RCC_FDCAN1CLKSOURCE_HSE)
 885              		.loc 1 455 14 is_stmt 1 view .LVU248
 886              		.loc 1 455 17 is_stmt 0 view .LVU249
 887 01b6 8023     		movs	r3, #128
 888 01b8 9B00     		lsls	r3, r3, #2
 889 01ba 9942     		cmp	r1, r3
 890 01bc 1DD0     		beq	.L55
 311:Drivers/STM32C0xx_HAL_Driver/Src/stm32c0xx_hal_rcc_ex.c ****   uint32_t srcclk;
 891              		.loc 1 311 12 view .LVU250
 892 01be 0020     		movs	r0, #0
 893 01c0 15E0     		b	.L26
 894              	.L67:
 449:Drivers/STM32C0xx_HAL_Driver/Src/stm32c0xx_hal_rcc_ex.c ****         }
 895              		.loc 1 449 11 is_stmt 1 view .LVU251
 449:Drivers/STM32C0xx_HAL_Driver/Src/stm32c0xx_hal_rcc_ex.c ****         }
 896              		.loc 1 449 23 is_stmt 0 view .LVU252
 897 01c2 FFF7FEFF 		bl	HAL_RCC_GetPCLK1Freq
 898              	.LVL59:
 449:Drivers/STM32C0xx_HAL_Driver/Src/stm32c0xx_hal_rcc_ex.c ****         }
 899              		.loc 1 449 23 view .LVU253
ARM GAS  C:\Users\BHUPEN~1\AppData\Local\Temp\ccJ4iBJ9.s 			page 26


 900 01c6 12E0     		b	.L26
 901              	.LVL60:
 902              	.L68:
 453:Drivers/STM32C0xx_HAL_Driver/Src/stm32c0xx_hal_rcc_ex.c ****         }
 903              		.loc 1 453 11 is_stmt 1 view .LVU254
 453:Drivers/STM32C0xx_HAL_Driver/Src/stm32c0xx_hal_rcc_ex.c ****         }
 904              		.loc 1 453 38 is_stmt 0 view .LVU255
 905 01c8 0E4B     		ldr	r3, .L69+4
 906 01ca 1B68     		ldr	r3, [r3]
 453:Drivers/STM32C0xx_HAL_Driver/Src/stm32c0xx_hal_rcc_ex.c ****         }
 907              		.loc 1 453 69 view .LVU256
 908 01cc 5B09     		lsrs	r3, r3, #5
 909 01ce 0721     		movs	r1, #7
 910              	.LVL61:
 453:Drivers/STM32C0xx_HAL_Driver/Src/stm32c0xx_hal_rcc_ex.c ****         }
 911              		.loc 1 453 69 view .LVU257
 912 01d0 1940     		ands	r1, r3
 453:Drivers/STM32C0xx_HAL_Driver/Src/stm32c0xx_hal_rcc_ex.c ****         }
 913              		.loc 1 453 94 view .LVU258
 914 01d2 0131     		adds	r1, r1, #1
 453:Drivers/STM32C0xx_HAL_Driver/Src/stm32c0xx_hal_rcc_ex.c ****         }
 915              		.loc 1 453 21 view .LVU259
 916 01d4 0C48     		ldr	r0, .L69+8
 917 01d6 FFF7FEFF 		bl	__aeabi_uidiv
 918              	.LVL62:
 453:Drivers/STM32C0xx_HAL_Driver/Src/stm32c0xx_hal_rcc_ex.c ****         }
 919              		.loc 1 453 21 view .LVU260
 920 01da 08E0     		b	.L26
 921              	.LVL63:
 922              	.L47:
 325:Drivers/STM32C0xx_HAL_Driver/Src/stm32c0xx_hal_rcc_ex.c ****     }
 923              		.loc 1 325 17 view .LVU261
 924 01dc 8020     		movs	r0, #128
 925              	.LVL64:
 325:Drivers/STM32C0xx_HAL_Driver/Src/stm32c0xx_hal_rcc_ex.c ****     }
 926              		.loc 1 325 17 view .LVU262
 927 01de 0002     		lsls	r0, r0, #8
 928 01e0 05E0     		b	.L26
 929              	.LVL65:
 930              	.L48:
 330:Drivers/STM32C0xx_HAL_Driver/Src/stm32c0xx_hal_rcc_ex.c ****     }
 931              		.loc 1 330 17 view .LVU263
 932 01e2 FA20     		movs	r0, #250
 933              	.LVL66:
 330:Drivers/STM32C0xx_HAL_Driver/Src/stm32c0xx_hal_rcc_ex.c ****     }
 934              		.loc 1 330 17 view .LVU264
 935 01e4 C001     		lsls	r0, r0, #7
 936 01e6 02E0     		b	.L26
 937              	.L49:
 335:Drivers/STM32C0xx_HAL_Driver/Src/stm32c0xx_hal_rcc_ex.c ****     }
 938              		.loc 1 335 17 view .LVU265
 939 01e8 0848     		ldr	r0, .L69+12
 940 01ea 00E0     		b	.L26
 941              	.LVL67:
 942              	.L50:
 317:Drivers/STM32C0xx_HAL_Driver/Src/stm32c0xx_hal_rcc_ex.c ****   {
 943              		.loc 1 317 6 view .LVU266
ARM GAS  C:\Users\BHUPEN~1\AppData\Local\Temp\ccJ4iBJ9.s 			page 27


 944 01ec 0020     		movs	r0, #0
 945              	.LVL68:
 946              	.L26:
 456:Drivers/STM32C0xx_HAL_Driver/Src/stm32c0xx_hal_rcc_ex.c ****         {
 457:Drivers/STM32C0xx_HAL_Driver/Src/stm32c0xx_hal_rcc_ex.c ****           /* External clock used.*/
 458:Drivers/STM32C0xx_HAL_Driver/Src/stm32c0xx_hal_rcc_ex.c ****           frequency = HSE_VALUE;
 459:Drivers/STM32C0xx_HAL_Driver/Src/stm32c0xx_hal_rcc_ex.c ****         }
 460:Drivers/STM32C0xx_HAL_Driver/Src/stm32c0xx_hal_rcc_ex.c ****         /* Clock not enabled for FDCAN1 */
 461:Drivers/STM32C0xx_HAL_Driver/Src/stm32c0xx_hal_rcc_ex.c ****         else
 462:Drivers/STM32C0xx_HAL_Driver/Src/stm32c0xx_hal_rcc_ex.c ****         {
 463:Drivers/STM32C0xx_HAL_Driver/Src/stm32c0xx_hal_rcc_ex.c ****           /* Nothing to do as frequency already initialized to 0U */
 464:Drivers/STM32C0xx_HAL_Driver/Src/stm32c0xx_hal_rcc_ex.c ****         }
 465:Drivers/STM32C0xx_HAL_Driver/Src/stm32c0xx_hal_rcc_ex.c ****         break;
 466:Drivers/STM32C0xx_HAL_Driver/Src/stm32c0xx_hal_rcc_ex.c **** #endif /* FDCAN1 */
 467:Drivers/STM32C0xx_HAL_Driver/Src/stm32c0xx_hal_rcc_ex.c **** #if defined (USB_DRD_FS)
 468:Drivers/STM32C0xx_HAL_Driver/Src/stm32c0xx_hal_rcc_ex.c ****       case RCC_PERIPHCLK_USB:
 469:Drivers/STM32C0xx_HAL_Driver/Src/stm32c0xx_hal_rcc_ex.c ****         /* Get the current USB source */
 470:Drivers/STM32C0xx_HAL_Driver/Src/stm32c0xx_hal_rcc_ex.c ****         srcclk = __HAL_RCC_GET_USB_SOURCE();
 471:Drivers/STM32C0xx_HAL_Driver/Src/stm32c0xx_hal_rcc_ex.c ****         if (srcclk == RCC_USBCLKSOURCE_HSI48)
 472:Drivers/STM32C0xx_HAL_Driver/Src/stm32c0xx_hal_rcc_ex.c ****         {
 473:Drivers/STM32C0xx_HAL_Driver/Src/stm32c0xx_hal_rcc_ex.c ****           frequency = HSI48_VALUE;
 474:Drivers/STM32C0xx_HAL_Driver/Src/stm32c0xx_hal_rcc_ex.c ****         }
 475:Drivers/STM32C0xx_HAL_Driver/Src/stm32c0xx_hal_rcc_ex.c ****         else if (srcclk == RCC_USBCLKSOURCE_HSE)
 476:Drivers/STM32C0xx_HAL_Driver/Src/stm32c0xx_hal_rcc_ex.c ****         {
 477:Drivers/STM32C0xx_HAL_Driver/Src/stm32c0xx_hal_rcc_ex.c ****           frequency = HSE_VALUE;
 478:Drivers/STM32C0xx_HAL_Driver/Src/stm32c0xx_hal_rcc_ex.c ****         }
 479:Drivers/STM32C0xx_HAL_Driver/Src/stm32c0xx_hal_rcc_ex.c ****         /* Clock not enabled for USB */
 480:Drivers/STM32C0xx_HAL_Driver/Src/stm32c0xx_hal_rcc_ex.c ****         else
 481:Drivers/STM32C0xx_HAL_Driver/Src/stm32c0xx_hal_rcc_ex.c ****         {
 482:Drivers/STM32C0xx_HAL_Driver/Src/stm32c0xx_hal_rcc_ex.c ****           /* Nothing to do as frequency already initialized to 0U */
 483:Drivers/STM32C0xx_HAL_Driver/Src/stm32c0xx_hal_rcc_ex.c ****         }
 484:Drivers/STM32C0xx_HAL_Driver/Src/stm32c0xx_hal_rcc_ex.c **** #endif /* USB_DRD_FS */
 485:Drivers/STM32C0xx_HAL_Driver/Src/stm32c0xx_hal_rcc_ex.c ****       default:
 486:Drivers/STM32C0xx_HAL_Driver/Src/stm32c0xx_hal_rcc_ex.c ****         break;
 487:Drivers/STM32C0xx_HAL_Driver/Src/stm32c0xx_hal_rcc_ex.c ****     }
 488:Drivers/STM32C0xx_HAL_Driver/Src/stm32c0xx_hal_rcc_ex.c ****   }
 489:Drivers/STM32C0xx_HAL_Driver/Src/stm32c0xx_hal_rcc_ex.c **** 
 490:Drivers/STM32C0xx_HAL_Driver/Src/stm32c0xx_hal_rcc_ex.c ****   return (frequency);
 491:Drivers/STM32C0xx_HAL_Driver/Src/stm32c0xx_hal_rcc_ex.c **** }
 947              		.loc 1 491 1 view .LVU267
 948              		@ sp needed
 949 01ee 10BD     		pop	{r4, pc}
 950              	.LVL69:
 951              	.L51:
 368:Drivers/STM32C0xx_HAL_Driver/Src/stm32c0xx_hal_rcc_ex.c ****         }
 952              		.loc 1 368 21 view .LVU268
 953 01f0 8020     		movs	r0, #128
 954 01f2 0002     		lsls	r0, r0, #8
 955 01f4 FBE7     		b	.L26
 956              	.L54:
 434:Drivers/STM32C0xx_HAL_Driver/Src/stm32c0xx_hal_rcc_ex.c ****         }
 957              		.loc 1 434 21 view .LVU269
 958 01f6 0648     		ldr	r0, .L69+16
 959 01f8 F9E7     		b	.L26
 960              	.L55:
 458:Drivers/STM32C0xx_HAL_Driver/Src/stm32c0xx_hal_rcc_ex.c ****         }
 961              		.loc 1 458 21 view .LVU270
ARM GAS  C:\Users\BHUPEN~1\AppData\Local\Temp\ccJ4iBJ9.s 			page 28


 962 01fa 0648     		ldr	r0, .L69+20
 963              	.LVL70:
 490:Drivers/STM32C0xx_HAL_Driver/Src/stm32c0xx_hal_rcc_ex.c **** }
 964              		.loc 1 490 3 is_stmt 1 view .LVU271
 490:Drivers/STM32C0xx_HAL_Driver/Src/stm32c0xx_hal_rcc_ex.c **** }
 965              		.loc 1 490 10 is_stmt 0 view .LVU272
 966 01fc F7E7     		b	.L26
 967              	.L70:
 968 01fe C046     		.align	2
 969              	.L69:
 970 0200 00000000 		.word	.L32
 971 0204 00100240 		.word	1073876992
 972 0208 006CDC02 		.word	48000000
 973 020c 90D00300 		.word	250000
 974 0210 0080BB00 		.word	12288000
 975 0214 00127A00 		.word	8000000
 976              		.cfi_endproc
 977              	.LFE232:
 979              		.section	.text.HAL_RCCEx_EnableLSCO,"ax",%progbits
 980              		.align	1
 981              		.global	HAL_RCCEx_EnableLSCO
 982              		.syntax unified
 983              		.code	16
 984              		.thumb_func
 985              		.fpu softvfp
 987              	HAL_RCCEx_EnableLSCO:
 988              	.LVL71:
 989              	.LFB233:
 492:Drivers/STM32C0xx_HAL_Driver/Src/stm32c0xx_hal_rcc_ex.c **** 
 493:Drivers/STM32C0xx_HAL_Driver/Src/stm32c0xx_hal_rcc_ex.c **** /**
 494:Drivers/STM32C0xx_HAL_Driver/Src/stm32c0xx_hal_rcc_ex.c ****   * @}
 495:Drivers/STM32C0xx_HAL_Driver/Src/stm32c0xx_hal_rcc_ex.c ****   */
 496:Drivers/STM32C0xx_HAL_Driver/Src/stm32c0xx_hal_rcc_ex.c **** 
 497:Drivers/STM32C0xx_HAL_Driver/Src/stm32c0xx_hal_rcc_ex.c **** /** @defgroup RCCEx_Exported_Functions_Group2 Extended Clock management functions
 498:Drivers/STM32C0xx_HAL_Driver/Src/stm32c0xx_hal_rcc_ex.c ****   *  @brief  Extended Clock management functions
 499:Drivers/STM32C0xx_HAL_Driver/Src/stm32c0xx_hal_rcc_ex.c ****   *
 500:Drivers/STM32C0xx_HAL_Driver/Src/stm32c0xx_hal_rcc_ex.c **** @verbatim
 501:Drivers/STM32C0xx_HAL_Driver/Src/stm32c0xx_hal_rcc_ex.c ****  ===============================================================================
 502:Drivers/STM32C0xx_HAL_Driver/Src/stm32c0xx_hal_rcc_ex.c ****                 ##### Extended clock management functions  #####
 503:Drivers/STM32C0xx_HAL_Driver/Src/stm32c0xx_hal_rcc_ex.c ****  ===============================================================================
 504:Drivers/STM32C0xx_HAL_Driver/Src/stm32c0xx_hal_rcc_ex.c ****     [..]
 505:Drivers/STM32C0xx_HAL_Driver/Src/stm32c0xx_hal_rcc_ex.c ****     This subsection provides a set of functions allowing to control the
 506:Drivers/STM32C0xx_HAL_Driver/Src/stm32c0xx_hal_rcc_ex.c ****     activation or deactivation of LSE CSS, Low speed clock output and
 507:Drivers/STM32C0xx_HAL_Driver/Src/stm32c0xx_hal_rcc_ex.c ****     clock after wake-up from STOP mode.
 508:Drivers/STM32C0xx_HAL_Driver/Src/stm32c0xx_hal_rcc_ex.c **** @endverbatim
 509:Drivers/STM32C0xx_HAL_Driver/Src/stm32c0xx_hal_rcc_ex.c ****   * @{
 510:Drivers/STM32C0xx_HAL_Driver/Src/stm32c0xx_hal_rcc_ex.c ****   */
 511:Drivers/STM32C0xx_HAL_Driver/Src/stm32c0xx_hal_rcc_ex.c **** 
 512:Drivers/STM32C0xx_HAL_Driver/Src/stm32c0xx_hal_rcc_ex.c **** /**
 513:Drivers/STM32C0xx_HAL_Driver/Src/stm32c0xx_hal_rcc_ex.c ****   * @brief  Select the Low Speed clock source to output on LSCO pin (PA2).
 514:Drivers/STM32C0xx_HAL_Driver/Src/stm32c0xx_hal_rcc_ex.c ****   * @param  LSCOSource  specifies the Low Speed clock source to output.
 515:Drivers/STM32C0xx_HAL_Driver/Src/stm32c0xx_hal_rcc_ex.c ****   *          This parameter can be one of the following values:
 516:Drivers/STM32C0xx_HAL_Driver/Src/stm32c0xx_hal_rcc_ex.c ****   *            @arg @ref RCC_LSCOSOURCE_LSI  LSI clock selected as LSCO source
 517:Drivers/STM32C0xx_HAL_Driver/Src/stm32c0xx_hal_rcc_ex.c ****   *            @arg @ref RCC_LSCOSOURCE_LSE  LSE clock selected as LSCO source
 518:Drivers/STM32C0xx_HAL_Driver/Src/stm32c0xx_hal_rcc_ex.c ****   * @retval None
 519:Drivers/STM32C0xx_HAL_Driver/Src/stm32c0xx_hal_rcc_ex.c ****   */
 520:Drivers/STM32C0xx_HAL_Driver/Src/stm32c0xx_hal_rcc_ex.c **** void HAL_RCCEx_EnableLSCO(uint32_t LSCOSource)
ARM GAS  C:\Users\BHUPEN~1\AppData\Local\Temp\ccJ4iBJ9.s 			page 29


 521:Drivers/STM32C0xx_HAL_Driver/Src/stm32c0xx_hal_rcc_ex.c **** {
 990              		.loc 1 521 1 is_stmt 1 view -0
 991              		.cfi_startproc
 992              		@ args = 0, pretend = 0, frame = 24
 993              		@ frame_needed = 0, uses_anonymous_args = 0
 994              		.loc 1 521 1 is_stmt 0 view .LVU274
 995 0000 30B5     		push	{r4, r5, lr}
 996              	.LCFI4:
 997              		.cfi_def_cfa_offset 12
 998              		.cfi_offset 4, -12
 999              		.cfi_offset 5, -8
 1000              		.cfi_offset 14, -4
 1001 0002 87B0     		sub	sp, sp, #28
 1002              	.LCFI5:
 1003              		.cfi_def_cfa_offset 40
 1004 0004 0500     		movs	r5, r0
 522:Drivers/STM32C0xx_HAL_Driver/Src/stm32c0xx_hal_rcc_ex.c ****   GPIO_InitTypeDef GPIO_InitStruct;
 1005              		.loc 1 522 3 is_stmt 1 view .LVU275
 523:Drivers/STM32C0xx_HAL_Driver/Src/stm32c0xx_hal_rcc_ex.c **** 
 524:Drivers/STM32C0xx_HAL_Driver/Src/stm32c0xx_hal_rcc_ex.c ****   /* Check the parameters */
 525:Drivers/STM32C0xx_HAL_Driver/Src/stm32c0xx_hal_rcc_ex.c ****   assert_param(IS_RCC_LSCOSOURCE(LSCOSource));
 1006              		.loc 1 525 3 view .LVU276
 526:Drivers/STM32C0xx_HAL_Driver/Src/stm32c0xx_hal_rcc_ex.c **** 
 527:Drivers/STM32C0xx_HAL_Driver/Src/stm32c0xx_hal_rcc_ex.c ****   /* LSCO Pin Clock Enable */
 528:Drivers/STM32C0xx_HAL_Driver/Src/stm32c0xx_hal_rcc_ex.c ****   LSCO_CLK_ENABLE();
 1007              		.loc 1 528 3 view .LVU277
 1008              	.LBB6:
 1009              		.loc 1 528 3 view .LVU278
 1010              		.loc 1 528 3 view .LVU279
 1011 0006 0F4C     		ldr	r4, .L72
 1012 0008 626B     		ldr	r2, [r4, #52]
 1013 000a 0123     		movs	r3, #1
 1014 000c 1A43     		orrs	r2, r3
 1015 000e 6263     		str	r2, [r4, #52]
 1016              		.loc 1 528 3 view .LVU280
 1017 0010 626B     		ldr	r2, [r4, #52]
 1018 0012 1340     		ands	r3, r2
 1019 0014 0093     		str	r3, [sp]
 1020              		.loc 1 528 3 view .LVU281
 1021 0016 009B     		ldr	r3, [sp]
 1022              	.LBE6:
 1023              		.loc 1 528 3 view .LVU282
 529:Drivers/STM32C0xx_HAL_Driver/Src/stm32c0xx_hal_rcc_ex.c **** 
 530:Drivers/STM32C0xx_HAL_Driver/Src/stm32c0xx_hal_rcc_ex.c ****   /* configure the LSCO pin in analog mode */
 531:Drivers/STM32C0xx_HAL_Driver/Src/stm32c0xx_hal_rcc_ex.c ****   GPIO_InitStruct.Pin = LSCO_PIN;
 1024              		.loc 1 531 3 view .LVU283
 1025              		.loc 1 531 23 is_stmt 0 view .LVU284
 1026 0018 0423     		movs	r3, #4
 1027 001a 0193     		str	r3, [sp, #4]
 532:Drivers/STM32C0xx_HAL_Driver/Src/stm32c0xx_hal_rcc_ex.c ****   GPIO_InitStruct.Mode = GPIO_MODE_ANALOG;
 1028              		.loc 1 532 3 is_stmt 1 view .LVU285
 1029              		.loc 1 532 24 is_stmt 0 view .LVU286
 1030 001c 013B     		subs	r3, r3, #1
 1031 001e 0293     		str	r3, [sp, #8]
 533:Drivers/STM32C0xx_HAL_Driver/Src/stm32c0xx_hal_rcc_ex.c ****   GPIO_InitStruct.Speed = GPIO_SPEED_FREQ_VERY_HIGH;
 1032              		.loc 1 533 3 is_stmt 1 view .LVU287
 1033              		.loc 1 533 25 is_stmt 0 view .LVU288
ARM GAS  C:\Users\BHUPEN~1\AppData\Local\Temp\ccJ4iBJ9.s 			page 30


 1034 0020 0493     		str	r3, [sp, #16]
 534:Drivers/STM32C0xx_HAL_Driver/Src/stm32c0xx_hal_rcc_ex.c ****   GPIO_InitStruct.Pull = GPIO_NOPULL;
 1035              		.loc 1 534 3 is_stmt 1 view .LVU289
 1036              		.loc 1 534 24 is_stmt 0 view .LVU290
 1037 0022 0023     		movs	r3, #0
 1038 0024 0393     		str	r3, [sp, #12]
 535:Drivers/STM32C0xx_HAL_Driver/Src/stm32c0xx_hal_rcc_ex.c ****   HAL_GPIO_Init(LSCO_GPIO_PORT, &GPIO_InitStruct);
 1039              		.loc 1 535 3 is_stmt 1 view .LVU291
 1040 0026 A020     		movs	r0, #160
 1041              	.LVL72:
 1042              		.loc 1 535 3 is_stmt 0 view .LVU292
 1043 0028 01A9     		add	r1, sp, #4
 1044 002a C005     		lsls	r0, r0, #23
 1045 002c FFF7FEFF 		bl	HAL_GPIO_Init
 1046              	.LVL73:
 536:Drivers/STM32C0xx_HAL_Driver/Src/stm32c0xx_hal_rcc_ex.c **** 
 537:Drivers/STM32C0xx_HAL_Driver/Src/stm32c0xx_hal_rcc_ex.c ****   MODIFY_REG(RCC->CSR1, RCC_CSR1_LSCOSEL | RCC_CSR1_LSCOEN, LSCOSource | RCC_CSR1_LSCOEN);
 1047              		.loc 1 537 3 is_stmt 1 view .LVU293
 1048 0030 E06D     		ldr	r0, [r4, #92]
 1049 0032 054B     		ldr	r3, .L72+4
 1050 0034 1840     		ands	r0, r3
 1051 0036 2843     		orrs	r0, r5
 1052 0038 8023     		movs	r3, #128
 1053 003a 5B04     		lsls	r3, r3, #17
 1054 003c 1843     		orrs	r0, r3
 1055 003e E065     		str	r0, [r4, #92]
 538:Drivers/STM32C0xx_HAL_Driver/Src/stm32c0xx_hal_rcc_ex.c **** 
 539:Drivers/STM32C0xx_HAL_Driver/Src/stm32c0xx_hal_rcc_ex.c **** }
 1056              		.loc 1 539 1 is_stmt 0 view .LVU294
 1057 0040 07B0     		add	sp, sp, #28
 1058              		@ sp needed
 1059              	.LVL74:
 1060              		.loc 1 539 1 view .LVU295
 1061 0042 30BD     		pop	{r4, r5, pc}
 1062              	.L73:
 1063              		.align	2
 1064              	.L72:
 1065 0044 00100240 		.word	1073876992
 1066 0048 FFFFFFFC 		.word	-50331649
 1067              		.cfi_endproc
 1068              	.LFE233:
 1070              		.section	.text.HAL_RCCEx_DisableLSCO,"ax",%progbits
 1071              		.align	1
 1072              		.global	HAL_RCCEx_DisableLSCO
 1073              		.syntax unified
 1074              		.code	16
 1075              		.thumb_func
 1076              		.fpu softvfp
 1078              	HAL_RCCEx_DisableLSCO:
 1079              	.LFB234:
 540:Drivers/STM32C0xx_HAL_Driver/Src/stm32c0xx_hal_rcc_ex.c **** 
 541:Drivers/STM32C0xx_HAL_Driver/Src/stm32c0xx_hal_rcc_ex.c **** /**
 542:Drivers/STM32C0xx_HAL_Driver/Src/stm32c0xx_hal_rcc_ex.c ****   * @brief  Disable the Low Speed clock output.
 543:Drivers/STM32C0xx_HAL_Driver/Src/stm32c0xx_hal_rcc_ex.c ****   * @retval None
 544:Drivers/STM32C0xx_HAL_Driver/Src/stm32c0xx_hal_rcc_ex.c ****   */
 545:Drivers/STM32C0xx_HAL_Driver/Src/stm32c0xx_hal_rcc_ex.c **** void HAL_RCCEx_DisableLSCO(void)
 546:Drivers/STM32C0xx_HAL_Driver/Src/stm32c0xx_hal_rcc_ex.c **** {
ARM GAS  C:\Users\BHUPEN~1\AppData\Local\Temp\ccJ4iBJ9.s 			page 31


 1080              		.loc 1 546 1 is_stmt 1 view -0
 1081              		.cfi_startproc
 1082              		@ args = 0, pretend = 0, frame = 0
 1083              		@ frame_needed = 0, uses_anonymous_args = 0
 1084              		@ link register save eliminated.
 547:Drivers/STM32C0xx_HAL_Driver/Src/stm32c0xx_hal_rcc_ex.c **** 
 548:Drivers/STM32C0xx_HAL_Driver/Src/stm32c0xx_hal_rcc_ex.c ****   CLEAR_BIT(RCC->CSR1, RCC_CSR1_LSCOEN);
 1085              		.loc 1 548 3 view .LVU297
 1086 0000 024A     		ldr	r2, .L75
 1087 0002 D36D     		ldr	r3, [r2, #92]
 1088 0004 0249     		ldr	r1, .L75+4
 1089 0006 0B40     		ands	r3, r1
 1090 0008 D365     		str	r3, [r2, #92]
 549:Drivers/STM32C0xx_HAL_Driver/Src/stm32c0xx_hal_rcc_ex.c **** 
 550:Drivers/STM32C0xx_HAL_Driver/Src/stm32c0xx_hal_rcc_ex.c **** }
 1091              		.loc 1 550 1 is_stmt 0 view .LVU298
 1092              		@ sp needed
 1093 000a 7047     		bx	lr
 1094              	.L76:
 1095              		.align	2
 1096              	.L75:
 1097 000c 00100240 		.word	1073876992
 1098 0010 FFFFFFFE 		.word	-16777217
 1099              		.cfi_endproc
 1100              	.LFE234:
 1102              		.text
 1103              	.Letext0:
 1104              		.file 2 "c:\\gcc-arm-none-eabi-10-2020-q4-major\\arm-none-eabi\\include\\machine\\_default_types.h
 1105              		.file 3 "c:\\gcc-arm-none-eabi-10-2020-q4-major\\arm-none-eabi\\include\\sys\\_stdint.h"
 1106              		.file 4 "Drivers/CMSIS/Device/ST/STM32C0xx/Include/stm32c092xx.h"
 1107              		.file 5 "Drivers/CMSIS/Device/ST/STM32C0xx/Include/stm32c0xx.h"
 1108              		.file 6 "Drivers/STM32C0xx_HAL_Driver/Inc/stm32c0xx_hal_def.h"
 1109              		.file 7 "Drivers/STM32C0xx_HAL_Driver/Inc/stm32c0xx_hal_rcc_ex.h"
 1110              		.file 8 "Drivers/STM32C0xx_HAL_Driver/Inc/stm32c0xx_hal_gpio.h"
 1111              		.file 9 "Drivers/STM32C0xx_HAL_Driver/Inc/stm32c0xx_hal_rcc.h"
 1112              		.file 10 "Drivers/STM32C0xx_HAL_Driver/Inc/stm32c0xx_hal.h"
ARM GAS  C:\Users\BHUPEN~1\AppData\Local\Temp\ccJ4iBJ9.s 			page 32

